00100014  BC30D11000        mov esp,0x10d130
00100019  E806000000        call 0x100024
0010001E  FA                cli
0010001F  F4                hlt
00100020  EBFD              jmp short 0x10001f
00100022  0000              add [eax],al
00100024  55                push ebp
00100025  89E5              mov ebp,esp
00100027  81EC04000000      sub esp,0x4
0010002D  B800401000        mov eax,0x104000
00100032  50                push eax
00100033  E88A010000        call 0x1001c2
00100038  83C404            add esp,byte +0x4
0010003B  E8602B0000        call 0x102ba0
00100040  E883060000        call 0x1006c8
00100045  E89F050000        call 0x1005e9
0010004A  E812160000        call 0x101661
0010004F  E8542A0000        call 0x102aa8
00100054  E8D82C0000        call 0x102d31
00100059  E8F62D0000        call 0x102e54
0010005E  E8E52D0000        call 0x102e48
00100063  B81B401000        mov eax,0x10401b
00100068  50                push eax
00100069  E854010000        call 0x1001c2
0010006E  83C404            add esp,byte +0x4
00100071  E817010000        call 0x10018d
00100076  E816010000        call 0x100191
0010007B  B821401000        mov eax,0x104021
00100080  50                push eax
00100081  E8D52B0000        call 0x102c5b
00100086  83C404            add esp,byte +0x4
00100089  8945FC            mov [ebp-0x4],eax
0010008C  8B45FC            mov eax,[ebp-0x4]
0010008F  83F800            cmp eax,byte +0x0
00100092  0F840A000000      jz near 0x1000a2
00100098  8B45FC            mov eax,[ebp-0x4]
0010009B  83C008            add eax,byte +0x8
0010009E  8B00              mov eax,[eax]
001000A0  FFD0              call eax
001000A2  B829401000        mov eax,0x104029
001000A7  50                push eax
001000A8  E8AE2B0000        call 0x102c5b
001000AD  83C404            add esp,byte +0x4
001000B0  8945FC            mov [ebp-0x4],eax
001000B3  8B45FC            mov eax,[ebp-0x4]
001000B6  83F800            cmp eax,byte +0x0
001000B9  0F840A000000      jz near 0x1000c9
001000BF  8B45FC            mov eax,[ebp-0x4]
001000C2  83C008            add eax,byte +0x8
001000C5  8B00              mov eax,[eax]
001000C7  FFD0              call eax
001000C9  B836401000        mov eax,0x104036
001000CE  50                push eax
001000CF  E8872B0000        call 0x102c5b
001000D4  83C404            add esp,byte +0x4
001000D7  8945FC            mov [ebp-0x4],eax
001000DA  8B45FC            mov eax,[ebp-0x4]
001000DD  83F800            cmp eax,byte +0x0
001000E0  0F840A000000      jz near 0x1000f0
001000E6  8B45FC            mov eax,[ebp-0x4]
001000E9  83C008            add eax,byte +0x8
001000EC  8B00              mov eax,[eax]
001000EE  FFD0              call eax
001000F0  F4                hlt
001000F1  EBFD              jmp short 0x1000f0
001000F3  C9                leave
001000F4  C3                ret
001000F5  0000              add [eax],al
001000F7  0000              add [eax],al
001000F9  0000              add [eax],al
001000FB  0000              add [eax],al
001000FD  0000              add [eax],al
001000FF  008B5424048B      add [ebx-0x74fbdbac],cl
00100105  44                inc esp
00100106  2408              and al,0x8
00100108  EE                out dx,al
00100109  31C0              xor eax,eax
0010010B  C3                ret
0010010C  8B542404          mov edx,[esp+0x4]
00100110  8B442408          mov eax,[esp+0x8]
00100114  66EF              out dx,ax
00100116  31C0              xor eax,eax
00100118  C3                ret
00100119  8B542404          mov edx,[esp+0x4]
0010011D  8B442408          mov eax,[esp+0x8]
00100121  EF                out dx,eax
00100122  31C0              xor eax,eax
00100124  C3                ret
00100125  8B542404          mov edx,[esp+0x4]
00100129  31C0              xor eax,eax
0010012B  EC                in al,dx
0010012C  C3                ret
0010012D  8B542404          mov edx,[esp+0x4]
00100131  31C0              xor eax,eax
00100133  66ED              in ax,dx
00100135  C3                ret
00100136  8B542404          mov edx,[esp+0x4]
0010013A  ED                in eax,dx
0010013B  C3                ret
0010013C  8B4C2404          mov ecx,[esp+0x4]
00100140  49                dec ecx
00100141  66890D00600000    mov [dword 0x6000],cx
00100148  C705026000001060  mov dword [dword 0x6002],0x6010
         -0000
00100152  0F011500600000    lgdt [dword 0x6000]
00100159  EA600110000800    jmp 0x8:0x100160
00100160  66BA1000          mov dx,0x10
00100164  8EDA              mov ds,edx
00100166  8EC2              mov es,edx
00100168  8EE2              mov fs,edx
0010016A  8EEA              mov gs,edx
0010016C  8ED2              mov ss,edx
0010016E  C3                ret
0010016F  8B4C2404          mov ecx,[esp+0x4]
00100173  49                dec ecx
00100174  66890D00700000    mov [dword 0x7000],cx
0010017B  C705027000001070  mov dword [dword 0x7002],0x7010
         -0000
00100185  0F011D00700000    lidt [dword 0x7000]
0010018C  C3                ret
0010018D  FB                sti
0010018E  C3                ret
0010018F  FA                cli
00100190  C3                ret
00100191  E470              in al,0x70
00100193  247F              and al,0x7f
00100195  E670              out 0x70,al
00100197  E471              in al,0x71
00100199  C3                ret
0010019A  E470              in al,0x70
0010019C  0C80              or al,0x80
0010019E  E670              out 0x70,al
001001A0  E471              in al,0x71
001001A2  C3                ret
001001A3  005589            add [ebp-0x77],dl
001001A6  E581              in eax,0x81
001001A8  EC                in al,dx
001001A9  0000              add [eax],al
001001AB  0000              add [eax],al
001001AD  0FB64508          movzx eax,byte [ebp+0x8]
001001B1  50                push eax
001001B2  B8E9000000        mov eax,0xe9
001001B7  50                push eax
001001B8  E843FFFFFF        call 0x100100
001001BD  83C408            add esp,byte +0x8
001001C0  C9                leave
001001C1  C3                ret
001001C2  55                push ebp
001001C3  89E5              mov ebp,esp
001001C5  81EC00000000      sub esp,0x0
001001CB  8B4508            mov eax,[ebp+0x8]
001001CE  0FBE00            movsx eax,byte [eax]
001001D1  83F800            cmp eax,byte +0x0
001001D4  0F8417000000      jz near 0x1001f1
001001DA  8B4508            mov eax,[ebp+0x8]
001001DD  89C1              mov ecx,eax
001001DF  40                inc eax
001001E0  894508            mov [ebp+0x8],eax
001001E3  0FBE09            movsx ecx,byte [ecx]
001001E6  51                push ecx
001001E7  E8B8FFFFFF        call 0x1001a4
001001EC  83C404            add esp,byte +0x4
001001EF  EBDA              jmp short 0x1001cb
001001F1  C9                leave
001001F2  C3                ret
001001F3  55                push ebp
001001F4  89E5              mov ebp,esp
001001F6  81EC00000000      sub esp,0x0
001001FC  8B4508            mov eax,[ebp+0x8]
001001FF  B90A000000        mov ecx,0xa
00100204  31D2              xor edx,edx
00100206  F7F1              div ecx
00100208  83F800            cmp eax,byte +0x0
0010020B  0F8415000000      jz near 0x100226
00100211  8B4508            mov eax,[ebp+0x8]
00100214  B90A000000        mov ecx,0xa
00100219  31D2              xor edx,edx
0010021B  F7F1              div ecx
0010021D  50                push eax
0010021E  E8D0FFFFFF        call 0x1001f3
00100223  83C404            add esp,byte +0x4
00100226  8B4508            mov eax,[ebp+0x8]
00100229  B90A000000        mov ecx,0xa
0010022E  31D2              xor edx,edx
00100230  F7F1              div ecx
00100232  83C230            add edx,byte +0x30
00100235  0FBED2            movsx edx,dl
00100238  52                push edx
00100239  E866FFFFFF        call 0x1001a4
0010023E  83C404            add esp,byte +0x4
00100241  C9                leave
00100242  C3                ret
00100243  55                push ebp
00100244  89E5              mov ebp,esp
00100246  81EC04000000      sub esp,0x4
0010024C  0FBE450C          movsx eax,byte [ebp+0xc]
00100250  83F800            cmp eax,byte +0x0
00100253  0F8405000000      jz near 0x10025e
00100259  E90A000000        jmp 0x100268
0010025E  B850401000        mov eax,0x104050
00100263  E905000000        jmp 0x10026d
00100268  B840401000        mov eax,0x104040
0010026D  8945FC            mov [ebp-0x4],eax
00100270  8B4508            mov eax,[ebp+0x8]
00100273  C1E81C            shr eax,byte 0x1c
00100276  83E00F            and eax,byte +0xf
00100279  8B4DFC            mov ecx,[ebp-0x4]
0010027C  01C1              add ecx,eax
0010027E  0FBE09            movsx ecx,byte [ecx]
00100281  51                push ecx
00100282  E81DFFFFFF        call 0x1001a4
00100287  83C404            add esp,byte +0x4
0010028A  8B4508            mov eax,[ebp+0x8]
0010028D  C1E818            shr eax,byte 0x18
00100290  83E00F            and eax,byte +0xf
00100293  8B4DFC            mov ecx,[ebp-0x4]
00100296  01C1              add ecx,eax
00100298  0FBE09            movsx ecx,byte [ecx]
0010029B  51                push ecx
0010029C  E803FFFFFF        call 0x1001a4
001002A1  83C404            add esp,byte +0x4
001002A4  8B4508            mov eax,[ebp+0x8]
001002A7  C1E814            shr eax,byte 0x14
001002AA  83E00F            and eax,byte +0xf
001002AD  8B4DFC            mov ecx,[ebp-0x4]
001002B0  01C1              add ecx,eax
001002B2  0FBE09            movsx ecx,byte [ecx]
001002B5  51                push ecx
001002B6  E8E9FEFFFF        call 0x1001a4
001002BB  83C404            add esp,byte +0x4
001002BE  8B4508            mov eax,[ebp+0x8]
001002C1  C1E810            shr eax,byte 0x10
001002C4  83E00F            and eax,byte +0xf
001002C7  8B4DFC            mov ecx,[ebp-0x4]
001002CA  01C1              add ecx,eax
001002CC  0FBE09            movsx ecx,byte [ecx]
001002CF  51                push ecx
001002D0  E8CFFEFFFF        call 0x1001a4
001002D5  83C404            add esp,byte +0x4
001002D8  8B4508            mov eax,[ebp+0x8]
001002DB  C1E80C            shr eax,byte 0xc
001002DE  83E00F            and eax,byte +0xf
001002E1  8B4DFC            mov ecx,[ebp-0x4]
001002E4  01C1              add ecx,eax
001002E6  0FBE09            movsx ecx,byte [ecx]
001002E9  51                push ecx
001002EA  E8B5FEFFFF        call 0x1001a4
001002EF  83C404            add esp,byte +0x4
001002F2  8B4508            mov eax,[ebp+0x8]
001002F5  C1E808            shr eax,byte 0x8
001002F8  83E00F            and eax,byte +0xf
001002FB  8B4DFC            mov ecx,[ebp-0x4]
001002FE  01C1              add ecx,eax
00100300  0FBE09            movsx ecx,byte [ecx]
00100303  51                push ecx
00100304  E89BFEFFFF        call 0x1001a4
00100309  83C404            add esp,byte +0x4
0010030C  8B4508            mov eax,[ebp+0x8]
0010030F  C1E804            shr eax,byte 0x4
00100312  83E00F            and eax,byte +0xf
00100315  8B4DFC            mov ecx,[ebp-0x4]
00100318  01C1              add ecx,eax
0010031A  0FBE09            movsx ecx,byte [ecx]
0010031D  51                push ecx
0010031E  E881FEFFFF        call 0x1001a4
00100323  83C404            add esp,byte +0x4
00100326  8B4508            mov eax,[ebp+0x8]
00100329  83E00F            and eax,byte +0xf
0010032C  8B4DFC            mov ecx,[ebp-0x4]
0010032F  01C1              add ecx,eax
00100331  0FBE09            movsx ecx,byte [ecx]
00100334  51                push ecx
00100335  E86AFEFFFF        call 0x1001a4
0010033A  83C404            add esp,byte +0x4
0010033D  C9                leave
0010033E  C3                ret
0010033F  55                push ebp
00100340  89E5              mov ebp,esp
00100342  81EC00000000      sub esp,0x0
00100348  8B4508            mov eax,[ebp+0x8]
0010034B  83F800            cmp eax,byte +0x0
0010034E  0F8D1B000000      jnl near 0x10036f
00100354  B82D000000        mov eax,0x2d
00100359  50                push eax
0010035A  E845FEFFFF        call 0x1001a4
0010035F  83C404            add esp,byte +0x4
00100362  B800000000        mov eax,0x0
00100367  8B4D08            mov ecx,[ebp+0x8]
0010036A  29C8              sub eax,ecx
0010036C  894508            mov [ebp+0x8],eax
0010036F  8B4508            mov eax,[ebp+0x8]
00100372  50                push eax
00100373  E87BFEFFFF        call 0x1001f3
00100378  83C404            add esp,byte +0x4
0010037B  C9                leave
0010037C  C3                ret
0010037D  55                push ebp
0010037E  89E5              mov ebp,esp
00100380  81EC04000000      sub esp,0x4
00100386  8D450C            lea eax,[ebp+0xc]
00100389  8945FC            mov [ebp-0x4],eax
0010038C  8B4508            mov eax,[ebp+0x8]
0010038F  0FBE00            movsx eax,byte [eax]
00100392  83F800            cmp eax,byte +0x0
00100395  0F8467010000      jz near 0x100502
0010039B  8B4508            mov eax,[ebp+0x8]
0010039E  E931010000        jmp 0x1004d4
001003A3  8B4508            mov eax,[ebp+0x8]
001003A6  89C1              mov ecx,eax
001003A8  40                inc eax
001003A9  894508            mov [ebp+0x8],eax
001003AC  8B4508            mov eax,[ebp+0x8]
001003AF  E9C9000000        jmp 0x10047d
001003B4  8B45FC            mov eax,[ebp-0x4]
001003B7  83C004            add eax,byte +0x4
001003BA  8945FC            mov [ebp-0x4],eax
001003BD  83E804            sub eax,byte +0x4
001003C0  8B00              mov eax,[eax]
001003C2  50                push eax
001003C3  E8FAFDFFFF        call 0x1001c2
001003C8  83C404            add esp,byte +0x4
001003CB  E9EB000000        jmp 0x1004bb
001003D0  8B45FC            mov eax,[ebp-0x4]
001003D3  83C004            add eax,byte +0x4
001003D6  8945FC            mov [ebp-0x4],eax
001003D9  83E804            sub eax,byte +0x4
001003DC  8B00              mov eax,[eax]
001003DE  50                push eax
001003DF  E80FFEFFFF        call 0x1001f3
001003E4  83C404            add esp,byte +0x4
001003E7  E9CF000000        jmp 0x1004bb
001003EC  8B45FC            mov eax,[ebp-0x4]
001003EF  83C004            add eax,byte +0x4
001003F2  8945FC            mov [ebp-0x4],eax
001003F5  83E804            sub eax,byte +0x4
001003F8  8B00              mov eax,[eax]
001003FA  50                push eax
001003FB  E83FFFFFFF        call 0x10033f
00100400  83C404            add esp,byte +0x4
00100403  E9B3000000        jmp 0x1004bb
00100408  8B45FC            mov eax,[ebp-0x4]
0010040B  83C004            add eax,byte +0x4
0010040E  8945FC            mov [ebp-0x4],eax
00100411  83E804            sub eax,byte +0x4
00100414  B900000000        mov ecx,0x0
00100419  51                push ecx
0010041A  8B00              mov eax,[eax]
0010041C  50                push eax
0010041D  E821FEFFFF        call 0x100243
00100422  83C408            add esp,byte +0x8
00100425  E991000000        jmp 0x1004bb
0010042A  8B45FC            mov eax,[ebp-0x4]
0010042D  83C004            add eax,byte +0x4
00100430  8945FC            mov [ebp-0x4],eax
00100433  83E804            sub eax,byte +0x4
00100436  B901000000        mov ecx,0x1
0010043B  51                push ecx
0010043C  8B00              mov eax,[eax]
0010043E  50                push eax
0010043F  E8FFFDFFFF        call 0x100243
00100444  83C408            add esp,byte +0x8
00100447  E96F000000        jmp 0x1004bb
0010044C  8B45FC            mov eax,[ebp-0x4]
0010044F  83C004            add eax,byte +0x4
00100452  8945FC            mov [ebp-0x4],eax
00100455  83E804            sub eax,byte +0x4
00100458  0FBE00            movsx eax,byte [eax]
0010045B  50                push eax
0010045C  E843FDFFFF        call 0x1001a4
00100461  83C404            add esp,byte +0x4
00100464  E952000000        jmp 0x1004bb
00100469  8B4508            mov eax,[ebp+0x8]
0010046C  0FBE00            movsx eax,byte [eax]
0010046F  50                push eax
00100470  E82FFDFFFF        call 0x1001a4
00100475  83C404            add esp,byte +0x4
00100478  E93E000000        jmp 0x1004bb
0010047D  0FBE00            movsx eax,byte [eax]
00100480  83F858            cmp eax,byte +0x58
00100483  0F84A1FFFFFF      jz near 0x10042a
00100489  83F863            cmp eax,byte +0x63
0010048C  0F84BAFFFFFF      jz near 0x10044c
00100492  83F864            cmp eax,byte +0x64
00100495  0F8451FFFFFF      jz near 0x1003ec
0010049B  83F873            cmp eax,byte +0x73
0010049E  0F8410FFFFFF      jz near 0x1003b4
001004A4  83F875            cmp eax,byte +0x75
001004A7  0F8423FFFFFF      jz near 0x1003d0
001004AD  83F878            cmp eax,byte +0x78
001004B0  0F8452FFFFFF      jz near 0x100408
001004B6  E9AEFFFFFF        jmp 0x100469
001004BB  E925000000        jmp 0x1004e5
001004C0  8B4508            mov eax,[ebp+0x8]
001004C3  0FBE00            movsx eax,byte [eax]
001004C6  50                push eax
001004C7  E8D8FCFFFF        call 0x1001a4
001004CC  83C404            add esp,byte +0x4
001004CF  E911000000        jmp 0x1004e5
001004D4  0FBE00            movsx eax,byte [eax]
001004D7  83F825            cmp eax,byte +0x25
001004DA  0F84C3FEFFFF      jz near 0x1003a3
001004E0  E9DBFFFFFF        jmp 0x1004c0
001004E5  8B4508            mov eax,[ebp+0x8]
001004E8  0FBE00            movsx eax,byte [eax]
001004EB  83F800            cmp eax,byte +0x0
001004EE  0F8409000000      jz near 0x1004fd
001004F4  8B4508            mov eax,[ebp+0x8]
001004F7  89C1              mov ecx,eax
001004F9  40                inc eax
001004FA  894508            mov [ebp+0x8],eax
001004FD  E98AFEFFFF        jmp 0x10038c
00100502  C9                leave
00100503  C3                ret
00100504  55                push ebp
00100505  89E5              mov ebp,esp
00100507  81EC00000000      sub esp,0x0
0010050D  0FB74508          movzx eax,word [ebp+0x8]
00100511  8B0D04501000      mov ecx,[dword 0x105004]
00100517  39C8              cmp eax,ecx
00100519  0F820B000000      jc near 0x10052a
0010051F  0FB74508          movzx eax,word [ebp+0x8]
00100523  40                inc eax
00100524  890504501000      mov [dword 0x105004],eax
0010052A  0FB74508          movzx eax,word [ebp+0x8]
0010052E  C1E003            shl eax,byte 0x3
00100531  8B0D00501000      mov ecx,[dword 0x105000]
00100537  01C1              add ecx,eax
00100539  83C102            add ecx,byte +0x2
0010053C  8B450C            mov eax,[ebp+0xc]
0010053F  81E0FFFF0000      and eax,0xffff
00100545  668901            mov [ecx],ax
00100548  0FB74508          movzx eax,word [ebp+0x8]
0010054C  C1E003            shl eax,byte 0x3
0010054F  8B0D00501000      mov ecx,[dword 0x105000]
00100555  01C1              add ecx,eax
00100557  83C104            add ecx,byte +0x4
0010055A  8B450C            mov eax,[ebp+0xc]
0010055D  C1E810            shr eax,byte 0x10
00100560  81E0FF000000      and eax,0xff
00100566  8801              mov [ecx],al
00100568  0FB74508          movzx eax,word [ebp+0x8]
0010056C  C1E003            shl eax,byte 0x3
0010056F  8B0D00501000      mov ecx,[dword 0x105000]
00100575  01C1              add ecx,eax
00100577  83C107            add ecx,byte +0x7
0010057A  8B450C            mov eax,[ebp+0xc]
0010057D  C1E818            shr eax,byte 0x18
00100580  81E0FF000000      and eax,0xff
00100586  8801              mov [ecx],al
00100588  0FB74508          movzx eax,word [ebp+0x8]
0010058C  C1E003            shl eax,byte 0x3
0010058F  8B0D00501000      mov ecx,[dword 0x105000]
00100595  01C1              add ecx,eax
00100597  8B4510            mov eax,[ebp+0x10]
0010059A  81E0FFFF0000      and eax,0xffff
001005A0  668901            mov [ecx],ax
001005A3  0FB74508          movzx eax,word [ebp+0x8]
001005A7  C1E003            shl eax,byte 0x3
001005AA  8B0D00501000      mov ecx,[dword 0x105000]
001005B0  01C1              add ecx,eax
001005B2  83C106            add ecx,byte +0x6
001005B5  8B4510            mov eax,[ebp+0x10]
001005B8  C1E810            shr eax,byte 0x10
001005BB  83E00F            and eax,byte +0xf
001005BE  0FB65518          movzx edx,byte [ebp+0x18]
001005C2  C1E204            shl edx,byte 0x4
001005C5  81E2F0000000      and edx,0xf0
001005CB  09D0              or eax,edx
001005CD  8801              mov [ecx],al
001005CF  0FB74508          movzx eax,word [ebp+0x8]
001005D3  C1E003            shl eax,byte 0x3
001005D6  8B0D00501000      mov ecx,[dword 0x105000]
001005DC  01C1              add ecx,eax
001005DE  83C105            add ecx,byte +0x5
001005E1  0FB64514          movzx eax,byte [ebp+0x14]
001005E5  8801              mov [ecx],al
001005E7  C9                leave
001005E8  C3                ret
001005E9  55                push ebp
001005EA  89E5              mov ebp,esp
001005EC  81EC00000000      sub esp,0x0
001005F2  B800000000        mov eax,0x0
001005F7  50                push eax
001005F8  B800000000        mov eax,0x0
001005FD  50                push eax
001005FE  B800000000        mov eax,0x0
00100603  50                push eax
00100604  B800000000        mov eax,0x0
00100609  50                push eax
0010060A  B800000000        mov eax,0x0
0010060F  50                push eax
00100610  E8EFFEFFFF        call 0x100504
00100615  83C414            add esp,byte +0x14
00100618  B80C000000        mov eax,0xc
0010061D  50                push eax
0010061E  B89A000000        mov eax,0x9a
00100623  50                push eax
00100624  B8FFFFFFFF        mov eax,0xffffffff
00100629  50                push eax
0010062A  B800000000        mov eax,0x0
0010062F  50                push eax
00100630  B801000000        mov eax,0x1
00100635  50                push eax
00100636  E8C9FEFFFF        call 0x100504
0010063B  83C414            add esp,byte +0x14
0010063E  B80C000000        mov eax,0xc
00100643  50                push eax
00100644  B892000000        mov eax,0x92
00100649  50                push eax
0010064A  B8FFFFFFFF        mov eax,0xffffffff
0010064F  50                push eax
00100650  B800000000        mov eax,0x0
00100655  50                push eax
00100656  B802000000        mov eax,0x2
0010065B  50                push eax
0010065C  E8A3FEFFFF        call 0x100504
00100661  83C414            add esp,byte +0x14
00100664  B80C000000        mov eax,0xc
00100669  50                push eax
0010066A  B8FA000000        mov eax,0xfa
0010066F  50                push eax
00100670  B8FFFFFFFF        mov eax,0xffffffff
00100675  50                push eax
00100676  B800000000        mov eax,0x0
0010067B  50                push eax
0010067C  B803000000        mov eax,0x3
00100681  50                push eax
00100682  E87DFEFFFF        call 0x100504
00100687  83C414            add esp,byte +0x14
0010068A  B80C000000        mov eax,0xc
0010068F  50                push eax
00100690  B8F2000000        mov eax,0xf2
00100695  50                push eax
00100696  B8FFFFFFFF        mov eax,0xffffffff
0010069B  50                push eax
0010069C  B800000000        mov eax,0x0
001006A1  50                push eax
001006A2  B804000000        mov eax,0x4
001006A7  50                push eax
001006A8  E857FEFFFF        call 0x100504
001006AD  83C414            add esp,byte +0x14
001006B0  8B0504501000      mov eax,[dword 0x105004]
001006B6  C1E003            shl eax,byte 0x3
001006B9  0FB7C0            movzx eax,ax
001006BC  50                push eax
001006BD  E87AFAFFFF        call 0x10013c
001006C2  83C404            add esp,byte +0x4
001006C5  C9                leave
001006C6  C3                ret
001006C7  005589            add [ebp-0x77],dl
001006CA  E581              in eax,0x81
001006CC  EC                in al,dx
001006CD  0000              add [eax],al
001006CF  0000              add [eax],al
001006D1  B800040000        mov eax,0x400
001006D6  50                push eax
001006D7  B800000000        mov eax,0x0
001006DC  50                push eax
001006DD  B830D21000        mov eax,0x10d230
001006E2  50                push eax
001006E3  E858350000        call 0x103c40
001006E8  83C40C            add esp,byte +0xc
001006EB  C9                leave
001006EC  C3                ret
001006ED  55                push ebp
001006EE  89E5              mov ebp,esp
001006F0  81EC00000000      sub esp,0x0
001006F6  0FB64508          movzx eax,byte [ebp+0x8]
001006FA  C1E002            shl eax,byte 0x2
001006FD  B930D21000        mov ecx,0x10d230
00100702  01C1              add ecx,eax
00100704  8B450C            mov eax,[ebp+0xc]
00100707  8901              mov [ecx],eax
00100709  C9                leave
0010070A  C3                ret
0010070B  55                push ebp
0010070C  89E5              mov ebp,esp
0010070E  81EC00000000      sub esp,0x0
00100714  8B452C            mov eax,[ebp+0x2c]
00100717  81E0FF000000      and eax,0xff
0010071D  C1E002            shl eax,byte 0x2
00100720  B930D21000        mov ecx,0x10d230
00100725  01C1              add ecx,eax
00100727  8B09              mov ecx,[ecx]
00100729  83F900            cmp ecx,byte +0x0
0010072C  0F8423000000      jz near 0x100755
00100732  8B452C            mov eax,[ebp+0x2c]
00100735  81E0FF000000      and eax,0xff
0010073B  C1E002            shl eax,byte 0x2
0010073E  B930D21000        mov ecx,0x10d230
00100743  01C1              add ecx,eax
00100745  8D4508            lea eax,[ebp+0x8]
00100748  50                push eax
00100749  8B09              mov ecx,[ecx]
0010074B  FFD1              call ecx
0010074D  83C404            add esp,byte +0x4
00100750  E95F000000        jmp 0x1007b4
00100755  8B452C            mov eax,[ebp+0x2c]
00100758  83F820            cmp eax,byte +0x20
0010075B  0F8317000000      jnc near 0x100778
00100761  8B452C            mov eax,[ebp+0x2c]
00100764  50                push eax
00100765  B864401000        mov eax,0x104064
0010076A  50                push eax
0010076B  E80DFCFFFF        call 0x10037d
00100770  83C408            add esp,byte +0x8
00100773  E93C000000        jmp 0x1007b4
00100778  8B452C            mov eax,[ebp+0x2c]
0010077B  83F830            cmp eax,byte +0x30
0010077E  0F831E000000      jnc near 0x1007a2
00100784  8B452C            mov eax,[ebp+0x2c]
00100787  83E820            sub eax,byte +0x20
0010078A  50                push eax
0010078B  8B452C            mov eax,[ebp+0x2c]
0010078E  50                push eax
0010078F  B88C401000        mov eax,0x10408c
00100794  50                push eax
00100795  E8E3FBFFFF        call 0x10037d
0010079A  83C40C            add esp,byte +0xc
0010079D  E912000000        jmp 0x1007b4
001007A2  8B452C            mov eax,[ebp+0x2c]
001007A5  50                push eax
001007A6  B8B7401000        mov eax,0x1040b7
001007AB  50                push eax
001007AC  E8CCFBFFFF        call 0x10037d
001007B1  83C408            add esp,byte +0x8
001007B4  8B452C            mov eax,[ebp+0x2c]
001007B7  83F820            cmp eax,byte +0x20
001007BA  0F8240000000      jc near 0x100800
001007C0  8B452C            mov eax,[ebp+0x2c]
001007C3  83F830            cmp eax,byte +0x30
001007C6  0F8334000000      jnc near 0x100800
001007CC  8B452C            mov eax,[ebp+0x2c]
001007CF  83F828            cmp eax,byte +0x28
001007D2  0F8214000000      jc near 0x1007ec
001007D8  B820000000        mov eax,0x20
001007DD  50                push eax
001007DE  B8A0000000        mov eax,0xa0
001007E3  50                push eax
001007E4  E817F9FFFF        call 0x100100
001007E9  83C408            add esp,byte +0x8
001007EC  B820000000        mov eax,0x20
001007F1  50                push eax
001007F2  B820000000        mov eax,0x20
001007F7  50                push eax
001007F8  E803F9FFFF        call 0x100100
001007FD  83C408            add esp,byte +0x8
00100800  C9                leave
00100801  C3                ret
00100802  0000              add [eax],al
00100804  90                nop
00100805  6A00              push byte +0x0
00100807  6A00              push byte +0x0
00100809  E96C220000        jmp 0x102a7a
0010080E  0000              add [eax],al
00100810  90                nop
00100811  6A00              push byte +0x0
00100813  6A01              push byte +0x1
00100815  E960220000        jmp 0x102a7a
0010081A  0000              add [eax],al
0010081C  90                nop
0010081D  6A00              push byte +0x0
0010081F  6A02              push byte +0x2
00100821  E954220000        jmp 0x102a7a
00100826  0000              add [eax],al
00100828  90                nop
00100829  6A00              push byte +0x0
0010082B  6A03              push byte +0x3
0010082D  E948220000        jmp 0x102a7a
00100832  0000              add [eax],al
00100834  90                nop
00100835  6A00              push byte +0x0
00100837  6A04              push byte +0x4
00100839  E93C220000        jmp 0x102a7a
0010083E  0000              add [eax],al
00100840  90                nop
00100841  6A00              push byte +0x0
00100843  6A05              push byte +0x5
00100845  E930220000        jmp 0x102a7a
0010084A  0000              add [eax],al
0010084C  90                nop
0010084D  6A00              push byte +0x0
0010084F  6A06              push byte +0x6
00100851  E924220000        jmp 0x102a7a
00100856  0000              add [eax],al
00100858  90                nop
00100859  6A00              push byte +0x0
0010085B  6A07              push byte +0x7
0010085D  E918220000        jmp 0x102a7a
00100862  0000              add [eax],al
00100864  90                nop
00100865  6A08              push byte +0x8
00100867  E90E220000        jmp 0x102a7a
0010086C  90                nop
0010086D  6A00              push byte +0x0
0010086F  6A09              push byte +0x9
00100871  E904220000        jmp 0x102a7a
00100876  0000              add [eax],al
00100878  90                nop
00100879  6A0A              push byte +0xa
0010087B  E9FA210000        jmp 0x102a7a
00100880  90                nop
00100881  6A0B              push byte +0xb
00100883  E9F2210000        jmp 0x102a7a
00100888  90                nop
00100889  6A0C              push byte +0xc
0010088B  E9EA210000        jmp 0x102a7a
00100890  90                nop
00100891  6A0D              push byte +0xd
00100893  E9E2210000        jmp 0x102a7a
00100898  90                nop
00100899  6A0E              push byte +0xe
0010089B  E9DA210000        jmp 0x102a7a
001008A0  90                nop
001008A1  6A00              push byte +0x0
001008A3  6A0F              push byte +0xf
001008A5  E9D0210000        jmp 0x102a7a
001008AA  0000              add [eax],al
001008AC  90                nop
001008AD  6A00              push byte +0x0
001008AF  6A10              push byte +0x10
001008B1  E9C4210000        jmp 0x102a7a
001008B6  0000              add [eax],al
001008B8  90                nop
001008B9  6A11              push byte +0x11
001008BB  E9BA210000        jmp 0x102a7a
001008C0  90                nop
001008C1  6A00              push byte +0x0
001008C3  6A12              push byte +0x12
001008C5  E9B0210000        jmp 0x102a7a
001008CA  0000              add [eax],al
001008CC  90                nop
001008CD  6A00              push byte +0x0
001008CF  6A13              push byte +0x13
001008D1  E9A4210000        jmp 0x102a7a
001008D6  0000              add [eax],al
001008D8  90                nop
001008D9  6A00              push byte +0x0
001008DB  6A14              push byte +0x14
001008DD  E998210000        jmp 0x102a7a
001008E2  0000              add [eax],al
001008E4  90                nop
001008E5  6A15              push byte +0x15
001008E7  E98E210000        jmp 0x102a7a
001008EC  90                nop
001008ED  6A00              push byte +0x0
001008EF  6A16              push byte +0x16
001008F1  E984210000        jmp 0x102a7a
001008F6  0000              add [eax],al
001008F8  90                nop
001008F9  6A00              push byte +0x0
001008FB  6A17              push byte +0x17
001008FD  E978210000        jmp 0x102a7a
00100902  0000              add [eax],al
00100904  90                nop
00100905  6A00              push byte +0x0
00100907  6A18              push byte +0x18
00100909  E96C210000        jmp 0x102a7a
0010090E  0000              add [eax],al
00100910  90                nop
00100911  6A00              push byte +0x0
00100913  6A19              push byte +0x19
00100915  E960210000        jmp 0x102a7a
0010091A  0000              add [eax],al
0010091C  90                nop
0010091D  6A00              push byte +0x0
0010091F  6A1A              push byte +0x1a
00100921  E954210000        jmp 0x102a7a
00100926  0000              add [eax],al
00100928  90                nop
00100929  6A00              push byte +0x0
0010092B  6A1B              push byte +0x1b
0010092D  E948210000        jmp 0x102a7a
00100932  0000              add [eax],al
00100934  90                nop
00100935  6A00              push byte +0x0
00100937  6A1C              push byte +0x1c
00100939  E93C210000        jmp 0x102a7a
0010093E  0000              add [eax],al
00100940  90                nop
00100941  6A00              push byte +0x0
00100943  6A1D              push byte +0x1d
00100945  E930210000        jmp 0x102a7a
0010094A  0000              add [eax],al
0010094C  90                nop
0010094D  6A00              push byte +0x0
0010094F  6A1E              push byte +0x1e
00100951  E924210000        jmp 0x102a7a
00100956  0000              add [eax],al
00100958  90                nop
00100959  6A00              push byte +0x0
0010095B  6A1F              push byte +0x1f
0010095D  E918210000        jmp 0x102a7a
00100962  0000              add [eax],al
00100964  90                nop
00100965  6A00              push byte +0x0
00100967  6A20              push byte +0x20
00100969  E90C210000        jmp 0x102a7a
0010096E  0000              add [eax],al
00100970  90                nop
00100971  6A00              push byte +0x0
00100973  6A21              push byte +0x21
00100975  E900210000        jmp 0x102a7a
0010097A  0000              add [eax],al
0010097C  90                nop
0010097D  6A00              push byte +0x0
0010097F  6A22              push byte +0x22
00100981  E9F4200000        jmp 0x102a7a
00100986  0000              add [eax],al
00100988  90                nop
00100989  6A00              push byte +0x0
0010098B  6A23              push byte +0x23
0010098D  E9E8200000        jmp 0x102a7a
00100992  0000              add [eax],al
00100994  90                nop
00100995  6A00              push byte +0x0
00100997  6A24              push byte +0x24
00100999  E9DC200000        jmp 0x102a7a
0010099E  0000              add [eax],al
001009A0  90                nop
001009A1  6A00              push byte +0x0
001009A3  6A25              push byte +0x25
001009A5  E9D0200000        jmp 0x102a7a
001009AA  0000              add [eax],al
001009AC  90                nop
001009AD  6A00              push byte +0x0
001009AF  6A26              push byte +0x26
001009B1  E9C4200000        jmp 0x102a7a
001009B6  0000              add [eax],al
001009B8  90                nop
001009B9  6A00              push byte +0x0
001009BB  6A27              push byte +0x27
001009BD  E9B8200000        jmp 0x102a7a
001009C2  0000              add [eax],al
001009C4  90                nop
001009C5  6A00              push byte +0x0
001009C7  6A28              push byte +0x28
001009C9  E9AC200000        jmp 0x102a7a
001009CE  0000              add [eax],al
001009D0  90                nop
001009D1  6A00              push byte +0x0
001009D3  6A29              push byte +0x29
001009D5  E9A0200000        jmp 0x102a7a
001009DA  0000              add [eax],al
001009DC  90                nop
001009DD  6A00              push byte +0x0
001009DF  6A2A              push byte +0x2a
001009E1  E994200000        jmp 0x102a7a
001009E6  0000              add [eax],al
001009E8  90                nop
001009E9  6A00              push byte +0x0
001009EB  6A2B              push byte +0x2b
001009ED  E988200000        jmp 0x102a7a
001009F2  0000              add [eax],al
001009F4  90                nop
001009F5  6A00              push byte +0x0
001009F7  6A2C              push byte +0x2c
001009F9  E97C200000        jmp 0x102a7a
001009FE  0000              add [eax],al
00100A00  90                nop
00100A01  6A00              push byte +0x0
00100A03  6A2D              push byte +0x2d
00100A05  E970200000        jmp 0x102a7a
00100A0A  0000              add [eax],al
00100A0C  90                nop
00100A0D  6A00              push byte +0x0
00100A0F  6A2E              push byte +0x2e
00100A11  E964200000        jmp 0x102a7a
00100A16  0000              add [eax],al
00100A18  90                nop
00100A19  6A00              push byte +0x0
00100A1B  6A2F              push byte +0x2f
00100A1D  E958200000        jmp 0x102a7a
00100A22  0000              add [eax],al
00100A24  90                nop
00100A25  6A00              push byte +0x0
00100A27  6A30              push byte +0x30
00100A29  E94C200000        jmp 0x102a7a
00100A2E  0000              add [eax],al
00100A30  90                nop
00100A31  6A00              push byte +0x0
00100A33  6A31              push byte +0x31
00100A35  E940200000        jmp 0x102a7a
00100A3A  0000              add [eax],al
00100A3C  90                nop
00100A3D  6A00              push byte +0x0
00100A3F  6A32              push byte +0x32
00100A41  E934200000        jmp 0x102a7a
00100A46  0000              add [eax],al
00100A48  90                nop
00100A49  6A00              push byte +0x0
00100A4B  6A33              push byte +0x33
00100A4D  E928200000        jmp 0x102a7a
00100A52  0000              add [eax],al
00100A54  90                nop
00100A55  6A00              push byte +0x0
00100A57  6A34              push byte +0x34
00100A59  E91C200000        jmp 0x102a7a
00100A5E  0000              add [eax],al
00100A60  90                nop
00100A61  6A00              push byte +0x0
00100A63  6A35              push byte +0x35
00100A65  E910200000        jmp 0x102a7a
00100A6A  0000              add [eax],al
00100A6C  90                nop
00100A6D  6A00              push byte +0x0
00100A6F  6A36              push byte +0x36
00100A71  E904200000        jmp 0x102a7a
00100A76  0000              add [eax],al
00100A78  90                nop
00100A79  6A00              push byte +0x0
00100A7B  6A37              push byte +0x37
00100A7D  E9F81F0000        jmp 0x102a7a
00100A82  0000              add [eax],al
00100A84  90                nop
00100A85  6A00              push byte +0x0
00100A87  6A38              push byte +0x38
00100A89  E9EC1F0000        jmp 0x102a7a
00100A8E  0000              add [eax],al
00100A90  90                nop
00100A91  6A00              push byte +0x0
00100A93  6A39              push byte +0x39
00100A95  E9E01F0000        jmp 0x102a7a
00100A9A  0000              add [eax],al
00100A9C  90                nop
00100A9D  6A00              push byte +0x0
00100A9F  6A3A              push byte +0x3a
00100AA1  E9D41F0000        jmp 0x102a7a
00100AA6  0000              add [eax],al
00100AA8  90                nop
00100AA9  6A00              push byte +0x0
00100AAB  6A3B              push byte +0x3b
00100AAD  E9C81F0000        jmp 0x102a7a
00100AB2  0000              add [eax],al
00100AB4  90                nop
00100AB5  6A00              push byte +0x0
00100AB7  6A3C              push byte +0x3c
00100AB9  E9BC1F0000        jmp 0x102a7a
00100ABE  0000              add [eax],al
00100AC0  90                nop
00100AC1  6A00              push byte +0x0
00100AC3  6A3D              push byte +0x3d
00100AC5  E9B01F0000        jmp 0x102a7a
00100ACA  0000              add [eax],al
00100ACC  90                nop
00100ACD  6A00              push byte +0x0
00100ACF  6A3E              push byte +0x3e
00100AD1  E9A41F0000        jmp 0x102a7a
00100AD6  0000              add [eax],al
00100AD8  90                nop
00100AD9  6A00              push byte +0x0
00100ADB  6A3F              push byte +0x3f
00100ADD  E9981F0000        jmp 0x102a7a
00100AE2  0000              add [eax],al
00100AE4  90                nop
00100AE5  6A00              push byte +0x0
00100AE7  6A40              push byte +0x40
00100AE9  E98C1F0000        jmp 0x102a7a
00100AEE  0000              add [eax],al
00100AF0  90                nop
00100AF1  6A00              push byte +0x0
00100AF3  6A41              push byte +0x41
00100AF5  E9801F0000        jmp 0x102a7a
00100AFA  0000              add [eax],al
00100AFC  90                nop
00100AFD  6A00              push byte +0x0
00100AFF  6A42              push byte +0x42
00100B01  E9741F0000        jmp 0x102a7a
00100B06  0000              add [eax],al
00100B08  90                nop
00100B09  6A00              push byte +0x0
00100B0B  6A43              push byte +0x43
00100B0D  E9681F0000        jmp 0x102a7a
00100B12  0000              add [eax],al
00100B14  90                nop
00100B15  6A00              push byte +0x0
00100B17  6A44              push byte +0x44
00100B19  E95C1F0000        jmp 0x102a7a
00100B1E  0000              add [eax],al
00100B20  90                nop
00100B21  6A00              push byte +0x0
00100B23  6A45              push byte +0x45
00100B25  E9501F0000        jmp 0x102a7a
00100B2A  0000              add [eax],al
00100B2C  90                nop
00100B2D  6A00              push byte +0x0
00100B2F  6A46              push byte +0x46
00100B31  E9441F0000        jmp 0x102a7a
00100B36  0000              add [eax],al
00100B38  90                nop
00100B39  6A00              push byte +0x0
00100B3B  6A47              push byte +0x47
00100B3D  E9381F0000        jmp 0x102a7a
00100B42  0000              add [eax],al
00100B44  90                nop
00100B45  6A00              push byte +0x0
00100B47  6A48              push byte +0x48
00100B49  E92C1F0000        jmp 0x102a7a
00100B4E  0000              add [eax],al
00100B50  90                nop
00100B51  6A00              push byte +0x0
00100B53  6A49              push byte +0x49
00100B55  E9201F0000        jmp 0x102a7a
00100B5A  0000              add [eax],al
00100B5C  90                nop
00100B5D  6A00              push byte +0x0
00100B5F  6A4A              push byte +0x4a
00100B61  E9141F0000        jmp 0x102a7a
00100B66  0000              add [eax],al
00100B68  90                nop
00100B69  6A00              push byte +0x0
00100B6B  6A4B              push byte +0x4b
00100B6D  E9081F0000        jmp 0x102a7a
00100B72  0000              add [eax],al
00100B74  90                nop
00100B75  6A00              push byte +0x0
00100B77  6A4C              push byte +0x4c
00100B79  E9FC1E0000        jmp 0x102a7a
00100B7E  0000              add [eax],al
00100B80  90                nop
00100B81  6A00              push byte +0x0
00100B83  6A4D              push byte +0x4d
00100B85  E9F01E0000        jmp 0x102a7a
00100B8A  0000              add [eax],al
00100B8C  90                nop
00100B8D  6A00              push byte +0x0
00100B8F  6A4E              push byte +0x4e
00100B91  E9E41E0000        jmp 0x102a7a
00100B96  0000              add [eax],al
00100B98  90                nop
00100B99  6A00              push byte +0x0
00100B9B  6A4F              push byte +0x4f
00100B9D  E9D81E0000        jmp 0x102a7a
00100BA2  0000              add [eax],al
00100BA4  90                nop
00100BA5  6A00              push byte +0x0
00100BA7  6A50              push byte +0x50
00100BA9  E9CC1E0000        jmp 0x102a7a
00100BAE  0000              add [eax],al
00100BB0  90                nop
00100BB1  6A00              push byte +0x0
00100BB3  6A51              push byte +0x51
00100BB5  E9C01E0000        jmp 0x102a7a
00100BBA  0000              add [eax],al
00100BBC  90                nop
00100BBD  6A00              push byte +0x0
00100BBF  6A52              push byte +0x52
00100BC1  E9B41E0000        jmp 0x102a7a
00100BC6  0000              add [eax],al
00100BC8  90                nop
00100BC9  6A00              push byte +0x0
00100BCB  6A53              push byte +0x53
00100BCD  E9A81E0000        jmp 0x102a7a
00100BD2  0000              add [eax],al
00100BD4  90                nop
00100BD5  6A00              push byte +0x0
00100BD7  6A54              push byte +0x54
00100BD9  E99C1E0000        jmp 0x102a7a
00100BDE  0000              add [eax],al
00100BE0  90                nop
00100BE1  6A00              push byte +0x0
00100BE3  6A55              push byte +0x55
00100BE5  E9901E0000        jmp 0x102a7a
00100BEA  0000              add [eax],al
00100BEC  90                nop
00100BED  6A00              push byte +0x0
00100BEF  6A56              push byte +0x56
00100BF1  E9841E0000        jmp 0x102a7a
00100BF6  0000              add [eax],al
00100BF8  90                nop
00100BF9  6A00              push byte +0x0
00100BFB  6A57              push byte +0x57
00100BFD  E9781E0000        jmp 0x102a7a
00100C02  0000              add [eax],al
00100C04  90                nop
00100C05  6A00              push byte +0x0
00100C07  6A58              push byte +0x58
00100C09  E96C1E0000        jmp 0x102a7a
00100C0E  0000              add [eax],al
00100C10  90                nop
00100C11  6A00              push byte +0x0
00100C13  6A59              push byte +0x59
00100C15  E9601E0000        jmp 0x102a7a
00100C1A  0000              add [eax],al
00100C1C  90                nop
00100C1D  6A00              push byte +0x0
00100C1F  6A5A              push byte +0x5a
00100C21  E9541E0000        jmp 0x102a7a
00100C26  0000              add [eax],al
00100C28  90                nop
00100C29  6A00              push byte +0x0
00100C2B  6A5B              push byte +0x5b
00100C2D  E9481E0000        jmp 0x102a7a
00100C32  0000              add [eax],al
00100C34  90                nop
00100C35  6A00              push byte +0x0
00100C37  6A5C              push byte +0x5c
00100C39  E93C1E0000        jmp 0x102a7a
00100C3E  0000              add [eax],al
00100C40  90                nop
00100C41  6A00              push byte +0x0
00100C43  6A5D              push byte +0x5d
00100C45  E9301E0000        jmp 0x102a7a
00100C4A  0000              add [eax],al
00100C4C  90                nop
00100C4D  6A00              push byte +0x0
00100C4F  6A5E              push byte +0x5e
00100C51  E9241E0000        jmp 0x102a7a
00100C56  0000              add [eax],al
00100C58  90                nop
00100C59  6A00              push byte +0x0
00100C5B  6A5F              push byte +0x5f
00100C5D  E9181E0000        jmp 0x102a7a
00100C62  0000              add [eax],al
00100C64  90                nop
00100C65  6A00              push byte +0x0
00100C67  6A60              push byte +0x60
00100C69  E90C1E0000        jmp 0x102a7a
00100C6E  0000              add [eax],al
00100C70  90                nop
00100C71  6A00              push byte +0x0
00100C73  6A61              push byte +0x61
00100C75  E9001E0000        jmp 0x102a7a
00100C7A  0000              add [eax],al
00100C7C  90                nop
00100C7D  6A00              push byte +0x0
00100C7F  6A62              push byte +0x62
00100C81  E9F41D0000        jmp 0x102a7a
00100C86  0000              add [eax],al
00100C88  90                nop
00100C89  6A00              push byte +0x0
00100C8B  6A63              push byte +0x63
00100C8D  E9E81D0000        jmp 0x102a7a
00100C92  0000              add [eax],al
00100C94  90                nop
00100C95  6A00              push byte +0x0
00100C97  6A64              push byte +0x64
00100C99  E9DC1D0000        jmp 0x102a7a
00100C9E  0000              add [eax],al
00100CA0  90                nop
00100CA1  6A00              push byte +0x0
00100CA3  6A65              push byte +0x65
00100CA5  E9D01D0000        jmp 0x102a7a
00100CAA  0000              add [eax],al
00100CAC  90                nop
00100CAD  6A00              push byte +0x0
00100CAF  6A66              push byte +0x66
00100CB1  E9C41D0000        jmp 0x102a7a
00100CB6  0000              add [eax],al
00100CB8  90                nop
00100CB9  6A00              push byte +0x0
00100CBB  6A67              push byte +0x67
00100CBD  E9B81D0000        jmp 0x102a7a
00100CC2  0000              add [eax],al
00100CC4  90                nop
00100CC5  6A00              push byte +0x0
00100CC7  6A68              push byte +0x68
00100CC9  E9AC1D0000        jmp 0x102a7a
00100CCE  0000              add [eax],al
00100CD0  90                nop
00100CD1  6A00              push byte +0x0
00100CD3  6A69              push byte +0x69
00100CD5  E9A01D0000        jmp 0x102a7a
00100CDA  0000              add [eax],al
00100CDC  90                nop
00100CDD  6A00              push byte +0x0
00100CDF  6A6A              push byte +0x6a
00100CE1  E9941D0000        jmp 0x102a7a
00100CE6  0000              add [eax],al
00100CE8  90                nop
00100CE9  6A00              push byte +0x0
00100CEB  6A6B              push byte +0x6b
00100CED  E9881D0000        jmp 0x102a7a
00100CF2  0000              add [eax],al
00100CF4  90                nop
00100CF5  6A00              push byte +0x0
00100CF7  6A6C              push byte +0x6c
00100CF9  E97C1D0000        jmp 0x102a7a
00100CFE  0000              add [eax],al
00100D00  90                nop
00100D01  6A00              push byte +0x0
00100D03  6A6D              push byte +0x6d
00100D05  E9701D0000        jmp 0x102a7a
00100D0A  0000              add [eax],al
00100D0C  90                nop
00100D0D  6A00              push byte +0x0
00100D0F  6A6E              push byte +0x6e
00100D11  E9641D0000        jmp 0x102a7a
00100D16  0000              add [eax],al
00100D18  90                nop
00100D19  6A00              push byte +0x0
00100D1B  6A6F              push byte +0x6f
00100D1D  E9581D0000        jmp 0x102a7a
00100D22  0000              add [eax],al
00100D24  90                nop
00100D25  6A00              push byte +0x0
00100D27  6A70              push byte +0x70
00100D29  E94C1D0000        jmp 0x102a7a
00100D2E  0000              add [eax],al
00100D30  90                nop
00100D31  6A00              push byte +0x0
00100D33  6A71              push byte +0x71
00100D35  E9401D0000        jmp 0x102a7a
00100D3A  0000              add [eax],al
00100D3C  90                nop
00100D3D  6A00              push byte +0x0
00100D3F  6A72              push byte +0x72
00100D41  E9341D0000        jmp 0x102a7a
00100D46  0000              add [eax],al
00100D48  90                nop
00100D49  6A00              push byte +0x0
00100D4B  6A73              push byte +0x73
00100D4D  E9281D0000        jmp 0x102a7a
00100D52  0000              add [eax],al
00100D54  90                nop
00100D55  6A00              push byte +0x0
00100D57  6A74              push byte +0x74
00100D59  E91C1D0000        jmp 0x102a7a
00100D5E  0000              add [eax],al
00100D60  90                nop
00100D61  6A00              push byte +0x0
00100D63  6A75              push byte +0x75
00100D65  E9101D0000        jmp 0x102a7a
00100D6A  0000              add [eax],al
00100D6C  90                nop
00100D6D  6A00              push byte +0x0
00100D6F  6A76              push byte +0x76
00100D71  E9041D0000        jmp 0x102a7a
00100D76  0000              add [eax],al
00100D78  90                nop
00100D79  6A00              push byte +0x0
00100D7B  6A77              push byte +0x77
00100D7D  E9F81C0000        jmp 0x102a7a
00100D82  0000              add [eax],al
00100D84  90                nop
00100D85  6A00              push byte +0x0
00100D87  6A78              push byte +0x78
00100D89  E9EC1C0000        jmp 0x102a7a
00100D8E  0000              add [eax],al
00100D90  90                nop
00100D91  6A00              push byte +0x0
00100D93  6A79              push byte +0x79
00100D95  E9E01C0000        jmp 0x102a7a
00100D9A  0000              add [eax],al
00100D9C  90                nop
00100D9D  6A00              push byte +0x0
00100D9F  6A7A              push byte +0x7a
00100DA1  E9D41C0000        jmp 0x102a7a
00100DA6  0000              add [eax],al
00100DA8  90                nop
00100DA9  6A00              push byte +0x0
00100DAB  6A7B              push byte +0x7b
00100DAD  E9C81C0000        jmp 0x102a7a
00100DB2  0000              add [eax],al
00100DB4  90                nop
00100DB5  6A00              push byte +0x0
00100DB7  6A7C              push byte +0x7c
00100DB9  E9BC1C0000        jmp 0x102a7a
00100DBE  0000              add [eax],al
00100DC0  90                nop
00100DC1  6A00              push byte +0x0
00100DC3  6A7D              push byte +0x7d
00100DC5  E9B01C0000        jmp 0x102a7a
00100DCA  0000              add [eax],al
00100DCC  90                nop
00100DCD  6A00              push byte +0x0
00100DCF  6A7E              push byte +0x7e
00100DD1  E9A41C0000        jmp 0x102a7a
00100DD6  0000              add [eax],al
00100DD8  90                nop
00100DD9  6A00              push byte +0x0
00100DDB  6A7F              push byte +0x7f
00100DDD  E9981C0000        jmp 0x102a7a
00100DE2  0000              add [eax],al
00100DE4  90                nop
00100DE5  6A00              push byte +0x0
00100DE7  6880000000        push dword 0x80
00100DEC  E9891C0000        jmp 0x102a7a
00100DF1  0000              add [eax],al
00100DF3  00906A006881      add [eax-0x7e97ff96],dl
00100DF9  0000              add [eax],al
00100DFB  00E9              add cl,ch
00100DFD  791C              jns 0x100e1b
00100DFF  0000              add [eax],al
00100E01  0000              add [eax],al
00100E03  00906A006882      add [eax-0x7d97ff96],dl
00100E09  0000              add [eax],al
00100E0B  00E9              add cl,ch
00100E0D  691C0000000000    imul ebx,[eax+eax],dword 0x0
00100E14  90                nop
00100E15  6A00              push byte +0x0
00100E17  6883000000        push dword 0x83
00100E1C  E9591C0000        jmp 0x102a7a
00100E21  0000              add [eax],al
00100E23  00906A006884      add [eax-0x7b97ff96],dl
00100E29  0000              add [eax],al
00100E2B  00E9              add cl,ch
00100E2D  49                dec ecx
00100E2E  1C00              sbb al,0x0
00100E30  0000              add [eax],al
00100E32  0000              add [eax],al
00100E34  90                nop
00100E35  6A00              push byte +0x0
00100E37  6885000000        push dword 0x85
00100E3C  E9391C0000        jmp 0x102a7a
00100E41  0000              add [eax],al
00100E43  00906A006886      add [eax-0x7997ff96],dl
00100E49  0000              add [eax],al
00100E4B  00E9              add cl,ch
00100E4D  291C00            sub [eax+eax],ebx
00100E50  0000              add [eax],al
00100E52  0000              add [eax],al
00100E54  90                nop
00100E55  6A00              push byte +0x0
00100E57  6887000000        push dword 0x87
00100E5C  E9191C0000        jmp 0x102a7a
00100E61  0000              add [eax],al
00100E63  00906A006888      add [eax-0x7797ff96],dl
00100E69  0000              add [eax],al
00100E6B  00E9              add cl,ch
00100E6D  091C00            or [eax+eax],ebx
00100E70  0000              add [eax],al
00100E72  0000              add [eax],al
00100E74  90                nop
00100E75  6A00              push byte +0x0
00100E77  6889000000        push dword 0x89
00100E7C  E9F91B0000        jmp 0x102a7a
00100E81  0000              add [eax],al
00100E83  00906A00688A      add [eax-0x7597ff96],dl
00100E89  0000              add [eax],al
00100E8B  00E9              add cl,ch
00100E8D  E91B000000        jmp 0x100ead
00100E92  0000              add [eax],al
00100E94  90                nop
00100E95  6A00              push byte +0x0
00100E97  688B000000        push dword 0x8b
00100E9C  E9D91B0000        jmp 0x102a7a
00100EA1  0000              add [eax],al
00100EA3  00906A00688C      add [eax-0x7397ff96],dl
00100EA9  0000              add [eax],al
00100EAB  00E9              add cl,ch
00100EAD  C9                leave
00100EAE  1B00              sbb eax,[eax]
00100EB0  0000              add [eax],al
00100EB2  0000              add [eax],al
00100EB4  90                nop
00100EB5  6A00              push byte +0x0
00100EB7  688D000000        push dword 0x8d
00100EBC  E9B91B0000        jmp 0x102a7a
00100EC1  0000              add [eax],al
00100EC3  00906A00688E      add [eax-0x7197ff96],dl
00100EC9  0000              add [eax],al
00100ECB  00E9              add cl,ch
00100ECD  A91B000000        test eax,0x1b
00100ED2  0000              add [eax],al
00100ED4  90                nop
00100ED5  6A00              push byte +0x0
00100ED7  688F000000        push dword 0x8f
00100EDC  E9991B0000        jmp 0x102a7a
00100EE1  0000              add [eax],al
00100EE3  00906A006890      add [eax-0x6f97ff96],dl
00100EE9  0000              add [eax],al
00100EEB  00E9              add cl,ch
00100EED  891B              mov [ebx],ebx
00100EEF  0000              add [eax],al
00100EF1  0000              add [eax],al
00100EF3  00906A006891      add [eax-0x6e97ff96],dl
00100EF9  0000              add [eax],al
00100EFB  00E9              add cl,ch
00100EFD  791B              jns 0x100f1a
00100EFF  0000              add [eax],al
00100F01  0000              add [eax],al
00100F03  00906A006892      add [eax-0x6d97ff96],dl
00100F09  0000              add [eax],al
00100F0B  00E9              add cl,ch
00100F0D  691B00000000      imul ebx,[ebx],dword 0x0
00100F13  00906A006893      add [eax-0x6c97ff96],dl
00100F19  0000              add [eax],al
00100F1B  00E9              add cl,ch
00100F1D  59                pop ecx
00100F1E  1B00              sbb eax,[eax]
00100F20  0000              add [eax],al
00100F22  0000              add [eax],al
00100F24  90                nop
00100F25  6A00              push byte +0x0
00100F27  6894000000        push dword 0x94
00100F2C  E9491B0000        jmp 0x102a7a
00100F31  0000              add [eax],al
00100F33  00906A006895      add [eax-0x6a97ff96],dl
00100F39  0000              add [eax],al
00100F3B  00E9              add cl,ch
00100F3D  391B              cmp [ebx],ebx
00100F3F  0000              add [eax],al
00100F41  0000              add [eax],al
00100F43  00906A006896      add [eax-0x6997ff96],dl
00100F49  0000              add [eax],al
00100F4B  00E9              add cl,ch
00100F4D  291B              sub [ebx],ebx
00100F4F  0000              add [eax],al
00100F51  0000              add [eax],al
00100F53  00906A006897      add [eax-0x6897ff96],dl
00100F59  0000              add [eax],al
00100F5B  00E9              add cl,ch
00100F5D  191B              sbb [ebx],ebx
00100F5F  0000              add [eax],al
00100F61  0000              add [eax],al
00100F63  00906A006898      add [eax-0x6797ff96],dl
00100F69  0000              add [eax],al
00100F6B  00E9              add cl,ch
00100F6D  091B              or [ebx],ebx
00100F6F  0000              add [eax],al
00100F71  0000              add [eax],al
00100F73  00906A006899      add [eax-0x6697ff96],dl
00100F79  0000              add [eax],al
00100F7B  00E9              add cl,ch
00100F7D  F9                stc
00100F7E  1A00              sbb al,[eax]
00100F80  0000              add [eax],al
00100F82  0000              add [eax],al
00100F84  90                nop
00100F85  6A00              push byte +0x0
00100F87  689A000000        push dword 0x9a
00100F8C  E9E91A0000        jmp 0x102a7a
00100F91  0000              add [eax],al
00100F93  00906A00689B      add [eax-0x6497ff96],dl
00100F99  0000              add [eax],al
00100F9B  00E9              add cl,ch
00100F9D  D91A              fstp dword [edx]
00100F9F  0000              add [eax],al
00100FA1  0000              add [eax],al
00100FA3  00906A00689C      add [eax-0x6397ff96],dl
00100FA9  0000              add [eax],al
00100FAB  00E9              add cl,ch
00100FAD  C9                leave
00100FAE  1A00              sbb al,[eax]
00100FB0  0000              add [eax],al
00100FB2  0000              add [eax],al
00100FB4  90                nop
00100FB5  6A00              push byte +0x0
00100FB7  689D000000        push dword 0x9d
00100FBC  E9B91A0000        jmp 0x102a7a
00100FC1  0000              add [eax],al
00100FC3  00906A00689E      add [eax-0x6197ff96],dl
00100FC9  0000              add [eax],al
00100FCB  00E9              add cl,ch
00100FCD  A91A000000        test eax,0x1a
00100FD2  0000              add [eax],al
00100FD4  90                nop
00100FD5  6A00              push byte +0x0
00100FD7  689F000000        push dword 0x9f
00100FDC  E9991A0000        jmp 0x102a7a
00100FE1  0000              add [eax],al
00100FE3  00906A0068A0      add [eax-0x5f97ff96],dl
00100FE9  0000              add [eax],al
00100FEB  00E9              add cl,ch
00100FED  891A              mov [edx],ebx
00100FEF  0000              add [eax],al
00100FF1  0000              add [eax],al
00100FF3  00906A0068A1      add [eax-0x5e97ff96],dl
00100FF9  0000              add [eax],al
00100FFB  00E9              add cl,ch
00100FFD  791A              jns 0x101019
00100FFF  0000              add [eax],al
00101001  0000              add [eax],al
00101003  00906A0068A2      add [eax-0x5d97ff96],dl
00101009  0000              add [eax],al
0010100B  00E9              add cl,ch
0010100D  691A00000000      imul ebx,[edx],dword 0x0
00101013  00906A0068A3      add [eax-0x5c97ff96],dl
00101019  0000              add [eax],al
0010101B  00E9              add cl,ch
0010101D  59                pop ecx
0010101E  1A00              sbb al,[eax]
00101020  0000              add [eax],al
00101022  0000              add [eax],al
00101024  90                nop
00101025  6A00              push byte +0x0
00101027  68A4000000        push dword 0xa4
0010102C  E9491A0000        jmp 0x102a7a
00101031  0000              add [eax],al
00101033  00906A0068A5      add [eax-0x5a97ff96],dl
00101039  0000              add [eax],al
0010103B  00E9              add cl,ch
0010103D  391A              cmp [edx],ebx
0010103F  0000              add [eax],al
00101041  0000              add [eax],al
00101043  00906A0068A6      add [eax-0x5997ff96],dl
00101049  0000              add [eax],al
0010104B  00E9              add cl,ch
0010104D  291A              sub [edx],ebx
0010104F  0000              add [eax],al
00101051  0000              add [eax],al
00101053  00906A0068A7      add [eax-0x5897ff96],dl
00101059  0000              add [eax],al
0010105B  00E9              add cl,ch
0010105D  191A              sbb [edx],ebx
0010105F  0000              add [eax],al
00101061  0000              add [eax],al
00101063  00906A0068A8      add [eax-0x5797ff96],dl
00101069  0000              add [eax],al
0010106B  00E9              add cl,ch
0010106D  091A              or [edx],ebx
0010106F  0000              add [eax],al
00101071  0000              add [eax],al
00101073  00906A0068A9      add [eax-0x5697ff96],dl
00101079  0000              add [eax],al
0010107B  00E9              add cl,ch
0010107D  F9                stc
0010107E  1900              sbb [eax],eax
00101080  0000              add [eax],al
00101082  0000              add [eax],al
00101084  90                nop
00101085  6A00              push byte +0x0
00101087  68AA000000        push dword 0xaa
0010108C  E9E9190000        jmp 0x102a7a
00101091  0000              add [eax],al
00101093  00906A0068AB      add [eax-0x5497ff96],dl
00101099  0000              add [eax],al
0010109B  00E9              add cl,ch
0010109D  D919              fstp dword [ecx]
0010109F  0000              add [eax],al
001010A1  0000              add [eax],al
001010A3  00906A0068AC      add [eax-0x5397ff96],dl
001010A9  0000              add [eax],al
001010AB  00E9              add cl,ch
001010AD  C9                leave
001010AE  1900              sbb [eax],eax
001010B0  0000              add [eax],al
001010B2  0000              add [eax],al
001010B4  90                nop
001010B5  6A00              push byte +0x0
001010B7  68AD000000        push dword 0xad
001010BC  E9B9190000        jmp 0x102a7a
001010C1  0000              add [eax],al
001010C3  00906A0068AE      add [eax-0x5197ff96],dl
001010C9  0000              add [eax],al
001010CB  00E9              add cl,ch
001010CD  A919000000        test eax,0x19
001010D2  0000              add [eax],al
001010D4  90                nop
001010D5  6A00              push byte +0x0
001010D7  68AF000000        push dword 0xaf
001010DC  E999190000        jmp 0x102a7a
001010E1  0000              add [eax],al
001010E3  00906A0068B0      add [eax-0x4f97ff96],dl
001010E9  0000              add [eax],al
001010EB  00E9              add cl,ch
001010ED  8919              mov [ecx],ebx
001010EF  0000              add [eax],al
001010F1  0000              add [eax],al
001010F3  00906A0068B1      add [eax-0x4e97ff96],dl
001010F9  0000              add [eax],al
001010FB  00E9              add cl,ch
001010FD  7919              jns 0x101118
001010FF  0000              add [eax],al
00101101  0000              add [eax],al
00101103  00906A0068B2      add [eax-0x4d97ff96],dl
00101109  0000              add [eax],al
0010110B  00E9              add cl,ch
0010110D  691900000000      imul ebx,[ecx],dword 0x0
00101113  00906A0068B3      add [eax-0x4c97ff96],dl
00101119  0000              add [eax],al
0010111B  00E9              add cl,ch
0010111D  59                pop ecx
0010111E  1900              sbb [eax],eax
00101120  0000              add [eax],al
00101122  0000              add [eax],al
00101124  90                nop
00101125  6A00              push byte +0x0
00101127  68B4000000        push dword 0xb4
0010112C  E949190000        jmp 0x102a7a
00101131  0000              add [eax],al
00101133  00906A0068B5      add [eax-0x4a97ff96],dl
00101139  0000              add [eax],al
0010113B  00E9              add cl,ch
0010113D  3919              cmp [ecx],ebx
0010113F  0000              add [eax],al
00101141  0000              add [eax],al
00101143  00906A0068B6      add [eax-0x4997ff96],dl
00101149  0000              add [eax],al
0010114B  00E9              add cl,ch
0010114D  2919              sub [ecx],ebx
0010114F  0000              add [eax],al
00101151  0000              add [eax],al
00101153  00906A0068B7      add [eax-0x4897ff96],dl
00101159  0000              add [eax],al
0010115B  00E9              add cl,ch
0010115D  1919              sbb [ecx],ebx
0010115F  0000              add [eax],al
00101161  0000              add [eax],al
00101163  00906A0068B8      add [eax-0x4797ff96],dl
00101169  0000              add [eax],al
0010116B  00E9              add cl,ch
0010116D  0919              or [ecx],ebx
0010116F  0000              add [eax],al
00101171  0000              add [eax],al
00101173  00906A0068B9      add [eax-0x4697ff96],dl
00101179  0000              add [eax],al
0010117B  00E9              add cl,ch
0010117D  F9                stc
0010117E  1800              sbb [eax],al
00101180  0000              add [eax],al
00101182  0000              add [eax],al
00101184  90                nop
00101185  6A00              push byte +0x0
00101187  68BA000000        push dword 0xba
0010118C  E9E9180000        jmp 0x102a7a
00101191  0000              add [eax],al
00101193  00906A0068BB      add [eax-0x4497ff96],dl
00101199  0000              add [eax],al
0010119B  00E9              add cl,ch
0010119D  D918              fstp dword [eax]
0010119F  0000              add [eax],al
001011A1  0000              add [eax],al
001011A3  00906A0068BC      add [eax-0x4397ff96],dl
001011A9  0000              add [eax],al
001011AB  00E9              add cl,ch
001011AD  C9                leave
001011AE  1800              sbb [eax],al
001011B0  0000              add [eax],al
001011B2  0000              add [eax],al
001011B4  90                nop
001011B5  6A00              push byte +0x0
001011B7  68BD000000        push dword 0xbd
001011BC  E9B9180000        jmp 0x102a7a
001011C1  0000              add [eax],al
001011C3  00906A0068BE      add [eax-0x4197ff96],dl
001011C9  0000              add [eax],al
001011CB  00E9              add cl,ch
001011CD  A918000000        test eax,0x18
001011D2  0000              add [eax],al
001011D4  90                nop
001011D5  6A00              push byte +0x0
001011D7  68BF000000        push dword 0xbf
001011DC  E999180000        jmp 0x102a7a
001011E1  0000              add [eax],al
001011E3  00906A0068C0      add [eax-0x3f97ff96],dl
001011E9  0000              add [eax],al
001011EB  00E9              add cl,ch
001011ED  8918              mov [eax],ebx
001011EF  0000              add [eax],al
001011F1  0000              add [eax],al
001011F3  00906A0068C1      add [eax-0x3e97ff96],dl
001011F9  0000              add [eax],al
001011FB  00E9              add cl,ch
001011FD  7918              jns 0x101217
001011FF  0000              add [eax],al
00101201  0000              add [eax],al
00101203  00906A0068C2      add [eax-0x3d97ff96],dl
00101209  0000              add [eax],al
0010120B  00E9              add cl,ch
0010120D  691800000000      imul ebx,[eax],dword 0x0
00101213  00906A0068C3      add [eax-0x3c97ff96],dl
00101219  0000              add [eax],al
0010121B  00E9              add cl,ch
0010121D  59                pop ecx
0010121E  1800              sbb [eax],al
00101220  0000              add [eax],al
00101222  0000              add [eax],al
00101224  90                nop
00101225  6A00              push byte +0x0
00101227  68C4000000        push dword 0xc4
0010122C  E949180000        jmp 0x102a7a
00101231  0000              add [eax],al
00101233  00906A0068C5      add [eax-0x3a97ff96],dl
00101239  0000              add [eax],al
0010123B  00E9              add cl,ch
0010123D  3918              cmp [eax],ebx
0010123F  0000              add [eax],al
00101241  0000              add [eax],al
00101243  00906A0068C6      add [eax-0x3997ff96],dl
00101249  0000              add [eax],al
0010124B  00E9              add cl,ch
0010124D  2918              sub [eax],ebx
0010124F  0000              add [eax],al
00101251  0000              add [eax],al
00101253  00906A0068C7      add [eax-0x3897ff96],dl
00101259  0000              add [eax],al
0010125B  00E9              add cl,ch
0010125D  1918              sbb [eax],ebx
0010125F  0000              add [eax],al
00101261  0000              add [eax],al
00101263  00906A0068C8      add [eax-0x3797ff96],dl
00101269  0000              add [eax],al
0010126B  00E9              add cl,ch
0010126D  0918              or [eax],ebx
0010126F  0000              add [eax],al
00101271  0000              add [eax],al
00101273  00906A0068C9      add [eax-0x3697ff96],dl
00101279  0000              add [eax],al
0010127B  00E9              add cl,ch
0010127D  F9                stc
0010127E  17                pop ss
0010127F  0000              add [eax],al
00101281  0000              add [eax],al
00101283  00906A0068CA      add [eax-0x3597ff96],dl
00101289  0000              add [eax],al
0010128B  00E9              add cl,ch
0010128D  E917000000        jmp 0x1012a9
00101292  0000              add [eax],al
00101294  90                nop
00101295  6A00              push byte +0x0
00101297  68CB000000        push dword 0xcb
0010129C  E9D9170000        jmp 0x102a7a
001012A1  0000              add [eax],al
001012A3  00906A0068CC      add [eax-0x3397ff96],dl
001012A9  0000              add [eax],al
001012AB  00E9              add cl,ch
001012AD  C9                leave
001012AE  17                pop ss
001012AF  0000              add [eax],al
001012B1  0000              add [eax],al
001012B3  00906A0068CD      add [eax-0x3297ff96],dl
001012B9  0000              add [eax],al
001012BB  00E9              add cl,ch
001012BD  B917000000        mov ecx,0x17
001012C2  0000              add [eax],al
001012C4  90                nop
001012C5  6A00              push byte +0x0
001012C7  68CE000000        push dword 0xce
001012CC  E9A9170000        jmp 0x102a7a
001012D1  0000              add [eax],al
001012D3  00906A0068CF      add [eax-0x3097ff96],dl
001012D9  0000              add [eax],al
001012DB  00E9              add cl,ch
001012DD  99                cdq
001012DE  17                pop ss
001012DF  0000              add [eax],al
001012E1  0000              add [eax],al
001012E3  00906A0068D0      add [eax-0x2f97ff96],dl
001012E9  0000              add [eax],al
001012EB  00E9              add cl,ch
001012ED  8917              mov [edi],edx
001012EF  0000              add [eax],al
001012F1  0000              add [eax],al
001012F3  00906A0068D1      add [eax-0x2e97ff96],dl
001012F9  0000              add [eax],al
001012FB  00E9              add cl,ch
001012FD  7917              jns 0x101316
001012FF  0000              add [eax],al
00101301  0000              add [eax],al
00101303  00906A0068D2      add [eax-0x2d97ff96],dl
00101309  0000              add [eax],al
0010130B  00E9              add cl,ch
0010130D  691700000000      imul edx,[edi],dword 0x0
00101313  00906A0068D3      add [eax-0x2c97ff96],dl
00101319  0000              add [eax],al
0010131B  00E9              add cl,ch
0010131D  59                pop ecx
0010131E  17                pop ss
0010131F  0000              add [eax],al
00101321  0000              add [eax],al
00101323  00906A0068D4      add [eax-0x2b97ff96],dl
00101329  0000              add [eax],al
0010132B  00E9              add cl,ch
0010132D  49                dec ecx
0010132E  17                pop ss
0010132F  0000              add [eax],al
00101331  0000              add [eax],al
00101333  00906A0068D5      add [eax-0x2a97ff96],dl
00101339  0000              add [eax],al
0010133B  00E9              add cl,ch
0010133D  3917              cmp [edi],edx
0010133F  0000              add [eax],al
00101341  0000              add [eax],al
00101343  00906A0068D6      add [eax-0x2997ff96],dl
00101349  0000              add [eax],al
0010134B  00E9              add cl,ch
0010134D  2917              sub [edi],edx
0010134F  0000              add [eax],al
00101351  0000              add [eax],al
00101353  00906A0068D7      add [eax-0x2897ff96],dl
00101359  0000              add [eax],al
0010135B  00E9              add cl,ch
0010135D  1917              sbb [edi],edx
0010135F  0000              add [eax],al
00101361  0000              add [eax],al
00101363  00906A0068D8      add [eax-0x2797ff96],dl
00101369  0000              add [eax],al
0010136B  00E9              add cl,ch
0010136D  0917              or [edi],edx
0010136F  0000              add [eax],al
00101371  0000              add [eax],al
00101373  00906A0068D9      add [eax-0x2697ff96],dl
00101379  0000              add [eax],al
0010137B  00E9              add cl,ch
0010137D  F9                stc
0010137E  16                push ss
0010137F  0000              add [eax],al
00101381  0000              add [eax],al
00101383  00906A0068DA      add [eax-0x2597ff96],dl
00101389  0000              add [eax],al
0010138B  00E9              add cl,ch
0010138D  E916000000        jmp 0x1013a8
00101392  0000              add [eax],al
00101394  90                nop
00101395  6A00              push byte +0x0
00101397  68DB000000        push dword 0xdb
0010139C  E9D9160000        jmp 0x102a7a
001013A1  0000              add [eax],al
001013A3  00906A0068DC      add [eax-0x2397ff96],dl
001013A9  0000              add [eax],al
001013AB  00E9              add cl,ch
001013AD  C9                leave
001013AE  16                push ss
001013AF  0000              add [eax],al
001013B1  0000              add [eax],al
001013B3  00906A0068DD      add [eax-0x2297ff96],dl
001013B9  0000              add [eax],al
001013BB  00E9              add cl,ch
001013BD  B916000000        mov ecx,0x16
001013C2  0000              add [eax],al
001013C4  90                nop
001013C5  6A00              push byte +0x0
001013C7  68DE000000        push dword 0xde
001013CC  E9A9160000        jmp 0x102a7a
001013D1  0000              add [eax],al
001013D3  00906A0068DF      add [eax-0x2097ff96],dl
001013D9  0000              add [eax],al
001013DB  00E9              add cl,ch
001013DD  99                cdq
001013DE  16                push ss
001013DF  0000              add [eax],al
001013E1  0000              add [eax],al
001013E3  00906A0068E0      add [eax-0x1f97ff96],dl
001013E9  0000              add [eax],al
001013EB  00E9              add cl,ch
001013ED  8916              mov [esi],edx
001013EF  0000              add [eax],al
001013F1  0000              add [eax],al
001013F3  00906A0068E1      add [eax-0x1e97ff96],dl
001013F9  0000              add [eax],al
001013FB  00E9              add cl,ch
001013FD  7916              jns 0x101415
001013FF  0000              add [eax],al
00101401  0000              add [eax],al
00101403  00906A0068E2      add [eax-0x1d97ff96],dl
00101409  0000              add [eax],al
0010140B  00E9              add cl,ch
0010140D  691600000000      imul edx,[esi],dword 0x0
00101413  00906A0068E3      add [eax-0x1c97ff96],dl
00101419  0000              add [eax],al
0010141B  00E9              add cl,ch
0010141D  59                pop ecx
0010141E  16                push ss
0010141F  0000              add [eax],al
00101421  0000              add [eax],al
00101423  00906A0068E4      add [eax-0x1b97ff96],dl
00101429  0000              add [eax],al
0010142B  00E9              add cl,ch
0010142D  49                dec ecx
0010142E  16                push ss
0010142F  0000              add [eax],al
00101431  0000              add [eax],al
00101433  00906A0068E5      add [eax-0x1a97ff96],dl
00101439  0000              add [eax],al
0010143B  00E9              add cl,ch
0010143D  3916              cmp [esi],edx
0010143F  0000              add [eax],al
00101441  0000              add [eax],al
00101443  00906A0068E6      add [eax-0x1997ff96],dl
00101449  0000              add [eax],al
0010144B  00E9              add cl,ch
0010144D  2916              sub [esi],edx
0010144F  0000              add [eax],al
00101451  0000              add [eax],al
00101453  00906A0068E7      add [eax-0x1897ff96],dl
00101459  0000              add [eax],al
0010145B  00E9              add cl,ch
0010145D  1916              sbb [esi],edx
0010145F  0000              add [eax],al
00101461  0000              add [eax],al
00101463  00906A0068E8      add [eax-0x1797ff96],dl
00101469  0000              add [eax],al
0010146B  00E9              add cl,ch
0010146D  0916              or [esi],edx
0010146F  0000              add [eax],al
00101471  0000              add [eax],al
00101473  00906A0068E9      add [eax-0x1697ff96],dl
00101479  0000              add [eax],al
0010147B  00E9              add cl,ch
0010147D  F9                stc
0010147E  1500000000        adc eax,0x0
00101483  00906A0068EA      add [eax-0x1597ff96],dl
00101489  0000              add [eax],al
0010148B  00E9              add cl,ch
0010148D  E915000000        jmp 0x1014a7
00101492  0000              add [eax],al
00101494  90                nop
00101495  6A00              push byte +0x0
00101497  68EB000000        push dword 0xeb
0010149C  E9D9150000        jmp 0x102a7a
001014A1  0000              add [eax],al
001014A3  00906A0068EC      add [eax-0x1397ff96],dl
001014A9  0000              add [eax],al
001014AB  00E9              add cl,ch
001014AD  C9                leave
001014AE  1500000000        adc eax,0x0
001014B3  00906A0068ED      add [eax-0x1297ff96],dl
001014B9  0000              add [eax],al
001014BB  00E9              add cl,ch
001014BD  B915000000        mov ecx,0x15
001014C2  0000              add [eax],al
001014C4  90                nop
001014C5  6A00              push byte +0x0
001014C7  68EE000000        push dword 0xee
001014CC  E9A9150000        jmp 0x102a7a
001014D1  0000              add [eax],al
001014D3  00906A0068EF      add [eax-0x1097ff96],dl
001014D9  0000              add [eax],al
001014DB  00E9              add cl,ch
001014DD  99                cdq
001014DE  1500000000        adc eax,0x0
001014E3  00906A0068F0      add [eax-0xf97ff96],dl
001014E9  0000              add [eax],al
001014EB  00E9              add cl,ch
001014ED  891500000000      mov [dword 0x0],edx
001014F3  00906A0068F1      add [eax-0xe97ff96],dl
001014F9  0000              add [eax],al
001014FB  00E9              add cl,ch
001014FD  7915              jns 0x101514
001014FF  0000              add [eax],al
00101501  0000              add [eax],al
00101503  00906A0068F2      add [eax-0xd97ff96],dl
00101509  0000              add [eax],al
0010150B  00E9              add cl,ch
0010150D  6915000000000090  imul edx,[dword 0x0],dword 0x6a9000
         -6A00
00101517  68F3000000        push dword 0xf3
0010151C  E959150000        jmp 0x102a7a
00101521  0000              add [eax],al
00101523  00906A0068F4      add [eax-0xb97ff96],dl
00101529  0000              add [eax],al
0010152B  00E9              add cl,ch
0010152D  49                dec ecx
0010152E  1500000000        adc eax,0x0
00101533  00906A0068F5      add [eax-0xa97ff96],dl
00101539  0000              add [eax],al
0010153B  00E9              add cl,ch
0010153D  391500000000      cmp [dword 0x0],edx
00101543  00906A0068F6      add [eax-0x997ff96],dl
00101549  0000              add [eax],al
0010154B  00E9              add cl,ch
0010154D  291500000000      sub [dword 0x0],edx
00101553  00906A0068F7      add [eax-0x897ff96],dl
00101559  0000              add [eax],al
0010155B  00E9              add cl,ch
0010155D  191500000000      sbb [dword 0x0],edx
00101563  00906A0068F8      add [eax-0x797ff96],dl
00101569  0000              add [eax],al
0010156B  00E9              add cl,ch
0010156D  091500000000      or [dword 0x0],edx
00101573  00906A0068F9      add [eax-0x697ff96],dl
00101579  0000              add [eax],al
0010157B  00E9              add cl,ch
0010157D  F9                stc
0010157E  1400              adc al,0x0
00101580  0000              add [eax],al
00101582  0000              add [eax],al
00101584  90                nop
00101585  6A00              push byte +0x0
00101587  68FA000000        push dword 0xfa
0010158C  E9E9140000        jmp 0x102a7a
00101591  0000              add [eax],al
00101593  00906A0068FB      add [eax-0x497ff96],dl
00101599  0000              add [eax],al
0010159B  00E9              add cl,ch
0010159D  D91400            fst dword [eax+eax]
001015A0  0000              add [eax],al
001015A2  0000              add [eax],al
001015A4  90                nop
001015A5  6A00              push byte +0x0
001015A7  68FC000000        push dword 0xfc
001015AC  E9C9140000        jmp 0x102a7a
001015B1  0000              add [eax],al
001015B3  00906A0068FD      add [eax-0x297ff96],dl
001015B9  0000              add [eax],al
001015BB  00E9              add cl,ch
001015BD  B914000000        mov ecx,0x14
001015C2  0000              add [eax],al
001015C4  90                nop
001015C5  6A00              push byte +0x0
001015C7  68FE000000        push dword 0xfe
001015CC  E9A9140000        jmp 0x102a7a
001015D1  0000              add [eax],al
001015D3  00906A0068FF      add [eax-0x97ff96],dl
001015D9  0000              add [eax],al
001015DB  00E9              add cl,ch
001015DD  99                cdq
001015DE  1400              adc al,0x0
001015E0  0000              add [eax],al
001015E2  0000              add [eax],al
001015E4  55                push ebp
001015E5  89E5              mov ebp,esp
001015E7  81EC00000000      sub esp,0x0
001015ED  9C                pushf
001015EE  E89CEBFFFF        call 0x10018f
001015F3  8B4508            mov eax,[ebp+0x8]
001015F6  C1E003            shl eax,byte 0x3
001015F9  8B0D08501000      mov ecx,[dword 0x105008]
001015FF  01C1              add ecx,eax
00101601  8B450C            mov eax,[ebp+0xc]
00101604  81E0FFFF0000      and eax,0xffff
0010160A  668901            mov [ecx],ax
0010160D  8B4508            mov eax,[ebp+0x8]
00101610  C1E003            shl eax,byte 0x3
00101613  8B0D08501000      mov ecx,[dword 0x105008]
00101619  01C1              add ecx,eax
0010161B  83C106            add ecx,byte +0x6
0010161E  8B450C            mov eax,[ebp+0xc]
00101621  C1E810            shr eax,byte 0x10
00101624  81E0FFFF0000      and eax,0xffff
0010162A  668901            mov [ecx],ax
0010162D  8B4508            mov eax,[ebp+0x8]
00101630  C1E003            shl eax,byte 0x3
00101633  8B0D08501000      mov ecx,[dword 0x105008]
00101639  01C1              add ecx,eax
0010163B  83C102            add ecx,byte +0x2
0010163E  B808000000        mov eax,0x8
00101643  668901            mov [ecx],ax
00101646  8B4508            mov eax,[ebp+0x8]
00101649  C1E003            shl eax,byte 0x3
0010164C  8B0D08501000      mov ecx,[dword 0x105008]
00101652  01C1              add ecx,eax
00101654  83C105            add ecx,byte +0x5
00101657  B88E000000        mov eax,0x8e
0010165C  8801              mov [ecx],al
0010165E  9D                popf
0010165F  C9                leave
00101660  C3                ret
00101661  55                push ebp
00101662  89E5              mov ebp,esp
00101664  81EC00000000      sub esp,0x0
0010166A  B804081000        mov eax,0x100804
0010166F  50                push eax
00101670  B800000000        mov eax,0x0
00101675  50                push eax
00101676  E869FFFFFF        call 0x1015e4
0010167B  83C408            add esp,byte +0x8
0010167E  B810081000        mov eax,0x100810
00101683  50                push eax
00101684  B801000000        mov eax,0x1
00101689  50                push eax
0010168A  E855FFFFFF        call 0x1015e4
0010168F  83C408            add esp,byte +0x8
00101692  B81C081000        mov eax,0x10081c
00101697  50                push eax
00101698  B802000000        mov eax,0x2
0010169D  50                push eax
0010169E  E841FFFFFF        call 0x1015e4
001016A3  83C408            add esp,byte +0x8
001016A6  B828081000        mov eax,0x100828
001016AB  50                push eax
001016AC  B803000000        mov eax,0x3
001016B1  50                push eax
001016B2  E82DFFFFFF        call 0x1015e4
001016B7  83C408            add esp,byte +0x8
001016BA  B834081000        mov eax,0x100834
001016BF  50                push eax
001016C0  B804000000        mov eax,0x4
001016C5  50                push eax
001016C6  E819FFFFFF        call 0x1015e4
001016CB  83C408            add esp,byte +0x8
001016CE  B840081000        mov eax,0x100840
001016D3  50                push eax
001016D4  B805000000        mov eax,0x5
001016D9  50                push eax
001016DA  E805FFFFFF        call 0x1015e4
001016DF  83C408            add esp,byte +0x8
001016E2  B84C081000        mov eax,0x10084c
001016E7  50                push eax
001016E8  B806000000        mov eax,0x6
001016ED  50                push eax
001016EE  E8F1FEFFFF        call 0x1015e4
001016F3  83C408            add esp,byte +0x8
001016F6  B858081000        mov eax,0x100858
001016FB  50                push eax
001016FC  B807000000        mov eax,0x7
00101701  50                push eax
00101702  E8DDFEFFFF        call 0x1015e4
00101707  83C408            add esp,byte +0x8
0010170A  B864081000        mov eax,0x100864
0010170F  50                push eax
00101710  B808000000        mov eax,0x8
00101715  50                push eax
00101716  E8C9FEFFFF        call 0x1015e4
0010171B  83C408            add esp,byte +0x8
0010171E  B86C081000        mov eax,0x10086c
00101723  50                push eax
00101724  B809000000        mov eax,0x9
00101729  50                push eax
0010172A  E8B5FEFFFF        call 0x1015e4
0010172F  83C408            add esp,byte +0x8
00101732  B878081000        mov eax,0x100878
00101737  50                push eax
00101738  B80A000000        mov eax,0xa
0010173D  50                push eax
0010173E  E8A1FEFFFF        call 0x1015e4
00101743  83C408            add esp,byte +0x8
00101746  B880081000        mov eax,0x100880
0010174B  50                push eax
0010174C  B80B000000        mov eax,0xb
00101751  50                push eax
00101752  E88DFEFFFF        call 0x1015e4
00101757  83C408            add esp,byte +0x8
0010175A  B888081000        mov eax,0x100888
0010175F  50                push eax
00101760  B80C000000        mov eax,0xc
00101765  50                push eax
00101766  E879FEFFFF        call 0x1015e4
0010176B  83C408            add esp,byte +0x8
0010176E  B890081000        mov eax,0x100890
00101773  50                push eax
00101774  B80D000000        mov eax,0xd
00101779  50                push eax
0010177A  E865FEFFFF        call 0x1015e4
0010177F  83C408            add esp,byte +0x8
00101782  B898081000        mov eax,0x100898
00101787  50                push eax
00101788  B80E000000        mov eax,0xe
0010178D  50                push eax
0010178E  E851FEFFFF        call 0x1015e4
00101793  83C408            add esp,byte +0x8
00101796  B8A0081000        mov eax,0x1008a0
0010179B  50                push eax
0010179C  B80F000000        mov eax,0xf
001017A1  50                push eax
001017A2  E83DFEFFFF        call 0x1015e4
001017A7  83C408            add esp,byte +0x8
001017AA  B8AC081000        mov eax,0x1008ac
001017AF  50                push eax
001017B0  B810000000        mov eax,0x10
001017B5  50                push eax
001017B6  E829FEFFFF        call 0x1015e4
001017BB  83C408            add esp,byte +0x8
001017BE  B8B8081000        mov eax,0x1008b8
001017C3  50                push eax
001017C4  B811000000        mov eax,0x11
001017C9  50                push eax
001017CA  E815FEFFFF        call 0x1015e4
001017CF  83C408            add esp,byte +0x8
001017D2  B8C0081000        mov eax,0x1008c0
001017D7  50                push eax
001017D8  B812000000        mov eax,0x12
001017DD  50                push eax
001017DE  E801FEFFFF        call 0x1015e4
001017E3  83C408            add esp,byte +0x8
001017E6  B8CC081000        mov eax,0x1008cc
001017EB  50                push eax
001017EC  B813000000        mov eax,0x13
001017F1  50                push eax
001017F2  E8EDFDFFFF        call 0x1015e4
001017F7  83C408            add esp,byte +0x8
001017FA  B8D8081000        mov eax,0x1008d8
001017FF  50                push eax
00101800  B814000000        mov eax,0x14
00101805  50                push eax
00101806  E8D9FDFFFF        call 0x1015e4
0010180B  83C408            add esp,byte +0x8
0010180E  B8E4081000        mov eax,0x1008e4
00101813  50                push eax
00101814  B815000000        mov eax,0x15
00101819  50                push eax
0010181A  E8C5FDFFFF        call 0x1015e4
0010181F  83C408            add esp,byte +0x8
00101822  B8EC081000        mov eax,0x1008ec
00101827  50                push eax
00101828  B816000000        mov eax,0x16
0010182D  50                push eax
0010182E  E8B1FDFFFF        call 0x1015e4
00101833  83C408            add esp,byte +0x8
00101836  B8F8081000        mov eax,0x1008f8
0010183B  50                push eax
0010183C  B817000000        mov eax,0x17
00101841  50                push eax
00101842  E89DFDFFFF        call 0x1015e4
00101847  83C408            add esp,byte +0x8
0010184A  B804091000        mov eax,0x100904
0010184F  50                push eax
00101850  B818000000        mov eax,0x18
00101855  50                push eax
00101856  E889FDFFFF        call 0x1015e4
0010185B  83C408            add esp,byte +0x8
0010185E  B810091000        mov eax,0x100910
00101863  50                push eax
00101864  B819000000        mov eax,0x19
00101869  50                push eax
0010186A  E875FDFFFF        call 0x1015e4
0010186F  83C408            add esp,byte +0x8
00101872  B81C091000        mov eax,0x10091c
00101877  50                push eax
00101878  B81A000000        mov eax,0x1a
0010187D  50                push eax
0010187E  E861FDFFFF        call 0x1015e4
00101883  83C408            add esp,byte +0x8
00101886  B828091000        mov eax,0x100928
0010188B  50                push eax
0010188C  B81B000000        mov eax,0x1b
00101891  50                push eax
00101892  E84DFDFFFF        call 0x1015e4
00101897  83C408            add esp,byte +0x8
0010189A  B834091000        mov eax,0x100934
0010189F  50                push eax
001018A0  B81C000000        mov eax,0x1c
001018A5  50                push eax
001018A6  E839FDFFFF        call 0x1015e4
001018AB  83C408            add esp,byte +0x8
001018AE  B840091000        mov eax,0x100940
001018B3  50                push eax
001018B4  B81D000000        mov eax,0x1d
001018B9  50                push eax
001018BA  E825FDFFFF        call 0x1015e4
001018BF  83C408            add esp,byte +0x8
001018C2  B84C091000        mov eax,0x10094c
001018C7  50                push eax
001018C8  B81E000000        mov eax,0x1e
001018CD  50                push eax
001018CE  E811FDFFFF        call 0x1015e4
001018D3  83C408            add esp,byte +0x8
001018D6  B858091000        mov eax,0x100958
001018DB  50                push eax
001018DC  B81F000000        mov eax,0x1f
001018E1  50                push eax
001018E2  E8FDFCFFFF        call 0x1015e4
001018E7  83C408            add esp,byte +0x8
001018EA  B864091000        mov eax,0x100964
001018EF  50                push eax
001018F0  B820000000        mov eax,0x20
001018F5  50                push eax
001018F6  E8E9FCFFFF        call 0x1015e4
001018FB  83C408            add esp,byte +0x8
001018FE  B870091000        mov eax,0x100970
00101903  50                push eax
00101904  B821000000        mov eax,0x21
00101909  50                push eax
0010190A  E8D5FCFFFF        call 0x1015e4
0010190F  83C408            add esp,byte +0x8
00101912  B87C091000        mov eax,0x10097c
00101917  50                push eax
00101918  B822000000        mov eax,0x22
0010191D  50                push eax
0010191E  E8C1FCFFFF        call 0x1015e4
00101923  83C408            add esp,byte +0x8
00101926  B888091000        mov eax,0x100988
0010192B  50                push eax
0010192C  B823000000        mov eax,0x23
00101931  50                push eax
00101932  E8ADFCFFFF        call 0x1015e4
00101937  83C408            add esp,byte +0x8
0010193A  B894091000        mov eax,0x100994
0010193F  50                push eax
00101940  B824000000        mov eax,0x24
00101945  50                push eax
00101946  E899FCFFFF        call 0x1015e4
0010194B  83C408            add esp,byte +0x8
0010194E  B8A0091000        mov eax,0x1009a0
00101953  50                push eax
00101954  B825000000        mov eax,0x25
00101959  50                push eax
0010195A  E885FCFFFF        call 0x1015e4
0010195F  83C408            add esp,byte +0x8
00101962  B8AC091000        mov eax,0x1009ac
00101967  50                push eax
00101968  B826000000        mov eax,0x26
0010196D  50                push eax
0010196E  E871FCFFFF        call 0x1015e4
00101973  83C408            add esp,byte +0x8
00101976  B8B8091000        mov eax,0x1009b8
0010197B  50                push eax
0010197C  B827000000        mov eax,0x27
00101981  50                push eax
00101982  E85DFCFFFF        call 0x1015e4
00101987  83C408            add esp,byte +0x8
0010198A  B8C4091000        mov eax,0x1009c4
0010198F  50                push eax
00101990  B828000000        mov eax,0x28
00101995  50                push eax
00101996  E849FCFFFF        call 0x1015e4
0010199B  83C408            add esp,byte +0x8
0010199E  B8D0091000        mov eax,0x1009d0
001019A3  50                push eax
001019A4  B829000000        mov eax,0x29
001019A9  50                push eax
001019AA  E835FCFFFF        call 0x1015e4
001019AF  83C408            add esp,byte +0x8
001019B2  B8DC091000        mov eax,0x1009dc
001019B7  50                push eax
001019B8  B82A000000        mov eax,0x2a
001019BD  50                push eax
001019BE  E821FCFFFF        call 0x1015e4
001019C3  83C408            add esp,byte +0x8
001019C6  B8E8091000        mov eax,0x1009e8
001019CB  50                push eax
001019CC  B82B000000        mov eax,0x2b
001019D1  50                push eax
001019D2  E80DFCFFFF        call 0x1015e4
001019D7  83C408            add esp,byte +0x8
001019DA  B8F4091000        mov eax,0x1009f4
001019DF  50                push eax
001019E0  B82C000000        mov eax,0x2c
001019E5  50                push eax
001019E6  E8F9FBFFFF        call 0x1015e4
001019EB  83C408            add esp,byte +0x8
001019EE  B8000A1000        mov eax,0x100a00
001019F3  50                push eax
001019F4  B82D000000        mov eax,0x2d
001019F9  50                push eax
001019FA  E8E5FBFFFF        call 0x1015e4
001019FF  83C408            add esp,byte +0x8
00101A02  B80C0A1000        mov eax,0x100a0c
00101A07  50                push eax
00101A08  B82E000000        mov eax,0x2e
00101A0D  50                push eax
00101A0E  E8D1FBFFFF        call 0x1015e4
00101A13  83C408            add esp,byte +0x8
00101A16  B8180A1000        mov eax,0x100a18
00101A1B  50                push eax
00101A1C  B82F000000        mov eax,0x2f
00101A21  50                push eax
00101A22  E8BDFBFFFF        call 0x1015e4
00101A27  83C408            add esp,byte +0x8
00101A2A  B8240A1000        mov eax,0x100a24
00101A2F  50                push eax
00101A30  B830000000        mov eax,0x30
00101A35  50                push eax
00101A36  E8A9FBFFFF        call 0x1015e4
00101A3B  83C408            add esp,byte +0x8
00101A3E  B8300A1000        mov eax,0x100a30
00101A43  50                push eax
00101A44  B831000000        mov eax,0x31
00101A49  50                push eax
00101A4A  E895FBFFFF        call 0x1015e4
00101A4F  83C408            add esp,byte +0x8
00101A52  B83C0A1000        mov eax,0x100a3c
00101A57  50                push eax
00101A58  B832000000        mov eax,0x32
00101A5D  50                push eax
00101A5E  E881FBFFFF        call 0x1015e4
00101A63  83C408            add esp,byte +0x8
00101A66  B8480A1000        mov eax,0x100a48
00101A6B  50                push eax
00101A6C  B833000000        mov eax,0x33
00101A71  50                push eax
00101A72  E86DFBFFFF        call 0x1015e4
00101A77  83C408            add esp,byte +0x8
00101A7A  B8540A1000        mov eax,0x100a54
00101A7F  50                push eax
00101A80  B834000000        mov eax,0x34
00101A85  50                push eax
00101A86  E859FBFFFF        call 0x1015e4
00101A8B  83C408            add esp,byte +0x8
00101A8E  B8600A1000        mov eax,0x100a60
00101A93  50                push eax
00101A94  B835000000        mov eax,0x35
00101A99  50                push eax
00101A9A  E845FBFFFF        call 0x1015e4
00101A9F  83C408            add esp,byte +0x8
00101AA2  B86C0A1000        mov eax,0x100a6c
00101AA7  50                push eax
00101AA8  B836000000        mov eax,0x36
00101AAD  50                push eax
00101AAE  E831FBFFFF        call 0x1015e4
00101AB3  83C408            add esp,byte +0x8
00101AB6  B8780A1000        mov eax,0x100a78
00101ABB  50                push eax
00101ABC  B837000000        mov eax,0x37
00101AC1  50                push eax
00101AC2  E81DFBFFFF        call 0x1015e4
00101AC7  83C408            add esp,byte +0x8
00101ACA  B8840A1000        mov eax,0x100a84
00101ACF  50                push eax
00101AD0  B838000000        mov eax,0x38
00101AD5  50                push eax
00101AD6  E809FBFFFF        call 0x1015e4
00101ADB  83C408            add esp,byte +0x8
00101ADE  B8900A1000        mov eax,0x100a90
00101AE3  50                push eax
00101AE4  B839000000        mov eax,0x39
00101AE9  50                push eax
00101AEA  E8F5FAFFFF        call 0x1015e4
00101AEF  83C408            add esp,byte +0x8
00101AF2  B89C0A1000        mov eax,0x100a9c
00101AF7  50                push eax
00101AF8  B83A000000        mov eax,0x3a
00101AFD  50                push eax
00101AFE  E8E1FAFFFF        call 0x1015e4
00101B03  83C408            add esp,byte +0x8
00101B06  B8A80A1000        mov eax,0x100aa8
00101B0B  50                push eax
00101B0C  B83B000000        mov eax,0x3b
00101B11  50                push eax
00101B12  E8CDFAFFFF        call 0x1015e4
00101B17  83C408            add esp,byte +0x8
00101B1A  B8B40A1000        mov eax,0x100ab4
00101B1F  50                push eax
00101B20  B83C000000        mov eax,0x3c
00101B25  50                push eax
00101B26  E8B9FAFFFF        call 0x1015e4
00101B2B  83C408            add esp,byte +0x8
00101B2E  B8C00A1000        mov eax,0x100ac0
00101B33  50                push eax
00101B34  B83D000000        mov eax,0x3d
00101B39  50                push eax
00101B3A  E8A5FAFFFF        call 0x1015e4
00101B3F  83C408            add esp,byte +0x8
00101B42  B8CC0A1000        mov eax,0x100acc
00101B47  50                push eax
00101B48  B83E000000        mov eax,0x3e
00101B4D  50                push eax
00101B4E  E891FAFFFF        call 0x1015e4
00101B53  83C408            add esp,byte +0x8
00101B56  B8D80A1000        mov eax,0x100ad8
00101B5B  50                push eax
00101B5C  B83F000000        mov eax,0x3f
00101B61  50                push eax
00101B62  E87DFAFFFF        call 0x1015e4
00101B67  83C408            add esp,byte +0x8
00101B6A  B8E40A1000        mov eax,0x100ae4
00101B6F  50                push eax
00101B70  B840000000        mov eax,0x40
00101B75  50                push eax
00101B76  E869FAFFFF        call 0x1015e4
00101B7B  83C408            add esp,byte +0x8
00101B7E  B8F00A1000        mov eax,0x100af0
00101B83  50                push eax
00101B84  B841000000        mov eax,0x41
00101B89  50                push eax
00101B8A  E855FAFFFF        call 0x1015e4
00101B8F  83C408            add esp,byte +0x8
00101B92  B8FC0A1000        mov eax,0x100afc
00101B97  50                push eax
00101B98  B842000000        mov eax,0x42
00101B9D  50                push eax
00101B9E  E841FAFFFF        call 0x1015e4
00101BA3  83C408            add esp,byte +0x8
00101BA6  B8080B1000        mov eax,0x100b08
00101BAB  50                push eax
00101BAC  B843000000        mov eax,0x43
00101BB1  50                push eax
00101BB2  E82DFAFFFF        call 0x1015e4
00101BB7  83C408            add esp,byte +0x8
00101BBA  B8140B1000        mov eax,0x100b14
00101BBF  50                push eax
00101BC0  B844000000        mov eax,0x44
00101BC5  50                push eax
00101BC6  E819FAFFFF        call 0x1015e4
00101BCB  83C408            add esp,byte +0x8
00101BCE  B8200B1000        mov eax,0x100b20
00101BD3  50                push eax
00101BD4  B845000000        mov eax,0x45
00101BD9  50                push eax
00101BDA  E805FAFFFF        call 0x1015e4
00101BDF  83C408            add esp,byte +0x8
00101BE2  B82C0B1000        mov eax,0x100b2c
00101BE7  50                push eax
00101BE8  B846000000        mov eax,0x46
00101BED  50                push eax
00101BEE  E8F1F9FFFF        call 0x1015e4
00101BF3  83C408            add esp,byte +0x8
00101BF6  B8380B1000        mov eax,0x100b38
00101BFB  50                push eax
00101BFC  B847000000        mov eax,0x47
00101C01  50                push eax
00101C02  E8DDF9FFFF        call 0x1015e4
00101C07  83C408            add esp,byte +0x8
00101C0A  B8440B1000        mov eax,0x100b44
00101C0F  50                push eax
00101C10  B848000000        mov eax,0x48
00101C15  50                push eax
00101C16  E8C9F9FFFF        call 0x1015e4
00101C1B  83C408            add esp,byte +0x8
00101C1E  B8500B1000        mov eax,0x100b50
00101C23  50                push eax
00101C24  B849000000        mov eax,0x49
00101C29  50                push eax
00101C2A  E8B5F9FFFF        call 0x1015e4
00101C2F  83C408            add esp,byte +0x8
00101C32  B85C0B1000        mov eax,0x100b5c
00101C37  50                push eax
00101C38  B84A000000        mov eax,0x4a
00101C3D  50                push eax
00101C3E  E8A1F9FFFF        call 0x1015e4
00101C43  83C408            add esp,byte +0x8
00101C46  B8680B1000        mov eax,0x100b68
00101C4B  50                push eax
00101C4C  B84B000000        mov eax,0x4b
00101C51  50                push eax
00101C52  E88DF9FFFF        call 0x1015e4
00101C57  83C408            add esp,byte +0x8
00101C5A  B8740B1000        mov eax,0x100b74
00101C5F  50                push eax
00101C60  B84C000000        mov eax,0x4c
00101C65  50                push eax
00101C66  E879F9FFFF        call 0x1015e4
00101C6B  83C408            add esp,byte +0x8
00101C6E  B8800B1000        mov eax,0x100b80
00101C73  50                push eax
00101C74  B84D000000        mov eax,0x4d
00101C79  50                push eax
00101C7A  E865F9FFFF        call 0x1015e4
00101C7F  83C408            add esp,byte +0x8
00101C82  B88C0B1000        mov eax,0x100b8c
00101C87  50                push eax
00101C88  B84E000000        mov eax,0x4e
00101C8D  50                push eax
00101C8E  E851F9FFFF        call 0x1015e4
00101C93  83C408            add esp,byte +0x8
00101C96  B8980B1000        mov eax,0x100b98
00101C9B  50                push eax
00101C9C  B84F000000        mov eax,0x4f
00101CA1  50                push eax
00101CA2  E83DF9FFFF        call 0x1015e4
00101CA7  83C408            add esp,byte +0x8
00101CAA  B8A40B1000        mov eax,0x100ba4
00101CAF  50                push eax
00101CB0  B850000000        mov eax,0x50
00101CB5  50                push eax
00101CB6  E829F9FFFF        call 0x1015e4
00101CBB  83C408            add esp,byte +0x8
00101CBE  B8B00B1000        mov eax,0x100bb0
00101CC3  50                push eax
00101CC4  B851000000        mov eax,0x51
00101CC9  50                push eax
00101CCA  E815F9FFFF        call 0x1015e4
00101CCF  83C408            add esp,byte +0x8
00101CD2  B8BC0B1000        mov eax,0x100bbc
00101CD7  50                push eax
00101CD8  B852000000        mov eax,0x52
00101CDD  50                push eax
00101CDE  E801F9FFFF        call 0x1015e4
00101CE3  83C408            add esp,byte +0x8
00101CE6  B8C80B1000        mov eax,0x100bc8
00101CEB  50                push eax
00101CEC  B853000000        mov eax,0x53
00101CF1  50                push eax
00101CF2  E8EDF8FFFF        call 0x1015e4
00101CF7  83C408            add esp,byte +0x8
00101CFA  B8D40B1000        mov eax,0x100bd4
00101CFF  50                push eax
00101D00  B854000000        mov eax,0x54
00101D05  50                push eax
00101D06  E8D9F8FFFF        call 0x1015e4
00101D0B  83C408            add esp,byte +0x8
00101D0E  B8E00B1000        mov eax,0x100be0
00101D13  50                push eax
00101D14  B855000000        mov eax,0x55
00101D19  50                push eax
00101D1A  E8C5F8FFFF        call 0x1015e4
00101D1F  83C408            add esp,byte +0x8
00101D22  B8EC0B1000        mov eax,0x100bec
00101D27  50                push eax
00101D28  B856000000        mov eax,0x56
00101D2D  50                push eax
00101D2E  E8B1F8FFFF        call 0x1015e4
00101D33  83C408            add esp,byte +0x8
00101D36  B8F80B1000        mov eax,0x100bf8
00101D3B  50                push eax
00101D3C  B857000000        mov eax,0x57
00101D41  50                push eax
00101D42  E89DF8FFFF        call 0x1015e4
00101D47  83C408            add esp,byte +0x8
00101D4A  B8040C1000        mov eax,0x100c04
00101D4F  50                push eax
00101D50  B858000000        mov eax,0x58
00101D55  50                push eax
00101D56  E889F8FFFF        call 0x1015e4
00101D5B  83C408            add esp,byte +0x8
00101D5E  B8100C1000        mov eax,0x100c10
00101D63  50                push eax
00101D64  B859000000        mov eax,0x59
00101D69  50                push eax
00101D6A  E875F8FFFF        call 0x1015e4
00101D6F  83C408            add esp,byte +0x8
00101D72  B81C0C1000        mov eax,0x100c1c
00101D77  50                push eax
00101D78  B85A000000        mov eax,0x5a
00101D7D  50                push eax
00101D7E  E861F8FFFF        call 0x1015e4
00101D83  83C408            add esp,byte +0x8
00101D86  B8280C1000        mov eax,0x100c28
00101D8B  50                push eax
00101D8C  B85B000000        mov eax,0x5b
00101D91  50                push eax
00101D92  E84DF8FFFF        call 0x1015e4
00101D97  83C408            add esp,byte +0x8
00101D9A  B8340C1000        mov eax,0x100c34
00101D9F  50                push eax
00101DA0  B85C000000        mov eax,0x5c
00101DA5  50                push eax
00101DA6  E839F8FFFF        call 0x1015e4
00101DAB  83C408            add esp,byte +0x8
00101DAE  B8400C1000        mov eax,0x100c40
00101DB3  50                push eax
00101DB4  B85D000000        mov eax,0x5d
00101DB9  50                push eax
00101DBA  E825F8FFFF        call 0x1015e4
00101DBF  83C408            add esp,byte +0x8
00101DC2  B84C0C1000        mov eax,0x100c4c
00101DC7  50                push eax
00101DC8  B85E000000        mov eax,0x5e
00101DCD  50                push eax
00101DCE  E811F8FFFF        call 0x1015e4
00101DD3  83C408            add esp,byte +0x8
00101DD6  B8580C1000        mov eax,0x100c58
00101DDB  50                push eax
00101DDC  B85F000000        mov eax,0x5f
00101DE1  50                push eax
00101DE2  E8FDF7FFFF        call 0x1015e4
00101DE7  83C408            add esp,byte +0x8
00101DEA  B8640C1000        mov eax,0x100c64
00101DEF  50                push eax
00101DF0  B860000000        mov eax,0x60
00101DF5  50                push eax
00101DF6  E8E9F7FFFF        call 0x1015e4
00101DFB  83C408            add esp,byte +0x8
00101DFE  B8700C1000        mov eax,0x100c70
00101E03  50                push eax
00101E04  B861000000        mov eax,0x61
00101E09  50                push eax
00101E0A  E8D5F7FFFF        call 0x1015e4
00101E0F  83C408            add esp,byte +0x8
00101E12  B87C0C1000        mov eax,0x100c7c
00101E17  50                push eax
00101E18  B862000000        mov eax,0x62
00101E1D  50                push eax
00101E1E  E8C1F7FFFF        call 0x1015e4
00101E23  83C408            add esp,byte +0x8
00101E26  B8880C1000        mov eax,0x100c88
00101E2B  50                push eax
00101E2C  B863000000        mov eax,0x63
00101E31  50                push eax
00101E32  E8ADF7FFFF        call 0x1015e4
00101E37  83C408            add esp,byte +0x8
00101E3A  B8940C1000        mov eax,0x100c94
00101E3F  50                push eax
00101E40  B864000000        mov eax,0x64
00101E45  50                push eax
00101E46  E899F7FFFF        call 0x1015e4
00101E4B  83C408            add esp,byte +0x8
00101E4E  B8A00C1000        mov eax,0x100ca0
00101E53  50                push eax
00101E54  B865000000        mov eax,0x65
00101E59  50                push eax
00101E5A  E885F7FFFF        call 0x1015e4
00101E5F  83C408            add esp,byte +0x8
00101E62  B8AC0C1000        mov eax,0x100cac
00101E67  50                push eax
00101E68  B866000000        mov eax,0x66
00101E6D  50                push eax
00101E6E  E871F7FFFF        call 0x1015e4
00101E73  83C408            add esp,byte +0x8
00101E76  B8B80C1000        mov eax,0x100cb8
00101E7B  50                push eax
00101E7C  B867000000        mov eax,0x67
00101E81  50                push eax
00101E82  E85DF7FFFF        call 0x1015e4
00101E87  83C408            add esp,byte +0x8
00101E8A  B8C40C1000        mov eax,0x100cc4
00101E8F  50                push eax
00101E90  B868000000        mov eax,0x68
00101E95  50                push eax
00101E96  E849F7FFFF        call 0x1015e4
00101E9B  83C408            add esp,byte +0x8
00101E9E  B8D00C1000        mov eax,0x100cd0
00101EA3  50                push eax
00101EA4  B869000000        mov eax,0x69
00101EA9  50                push eax
00101EAA  E835F7FFFF        call 0x1015e4
00101EAF  83C408            add esp,byte +0x8
00101EB2  B8DC0C1000        mov eax,0x100cdc
00101EB7  50                push eax
00101EB8  B86A000000        mov eax,0x6a
00101EBD  50                push eax
00101EBE  E821F7FFFF        call 0x1015e4
00101EC3  83C408            add esp,byte +0x8
00101EC6  B8E80C1000        mov eax,0x100ce8
00101ECB  50                push eax
00101ECC  B86B000000        mov eax,0x6b
00101ED1  50                push eax
00101ED2  E80DF7FFFF        call 0x1015e4
00101ED7  83C408            add esp,byte +0x8
00101EDA  B8F40C1000        mov eax,0x100cf4
00101EDF  50                push eax
00101EE0  B86C000000        mov eax,0x6c
00101EE5  50                push eax
00101EE6  E8F9F6FFFF        call 0x1015e4
00101EEB  83C408            add esp,byte +0x8
00101EEE  B8000D1000        mov eax,0x100d00
00101EF3  50                push eax
00101EF4  B86D000000        mov eax,0x6d
00101EF9  50                push eax
00101EFA  E8E5F6FFFF        call 0x1015e4
00101EFF  83C408            add esp,byte +0x8
00101F02  B80C0D1000        mov eax,0x100d0c
00101F07  50                push eax
00101F08  B86E000000        mov eax,0x6e
00101F0D  50                push eax
00101F0E  E8D1F6FFFF        call 0x1015e4
00101F13  83C408            add esp,byte +0x8
00101F16  B8180D1000        mov eax,0x100d18
00101F1B  50                push eax
00101F1C  B86F000000        mov eax,0x6f
00101F21  50                push eax
00101F22  E8BDF6FFFF        call 0x1015e4
00101F27  83C408            add esp,byte +0x8
00101F2A  B8240D1000        mov eax,0x100d24
00101F2F  50                push eax
00101F30  B870000000        mov eax,0x70
00101F35  50                push eax
00101F36  E8A9F6FFFF        call 0x1015e4
00101F3B  83C408            add esp,byte +0x8
00101F3E  B8300D1000        mov eax,0x100d30
00101F43  50                push eax
00101F44  B871000000        mov eax,0x71
00101F49  50                push eax
00101F4A  E895F6FFFF        call 0x1015e4
00101F4F  83C408            add esp,byte +0x8
00101F52  B83C0D1000        mov eax,0x100d3c
00101F57  50                push eax
00101F58  B872000000        mov eax,0x72
00101F5D  50                push eax
00101F5E  E881F6FFFF        call 0x1015e4
00101F63  83C408            add esp,byte +0x8
00101F66  B8480D1000        mov eax,0x100d48
00101F6B  50                push eax
00101F6C  B873000000        mov eax,0x73
00101F71  50                push eax
00101F72  E86DF6FFFF        call 0x1015e4
00101F77  83C408            add esp,byte +0x8
00101F7A  B8540D1000        mov eax,0x100d54
00101F7F  50                push eax
00101F80  B874000000        mov eax,0x74
00101F85  50                push eax
00101F86  E859F6FFFF        call 0x1015e4
00101F8B  83C408            add esp,byte +0x8
00101F8E  B8600D1000        mov eax,0x100d60
00101F93  50                push eax
00101F94  B875000000        mov eax,0x75
00101F99  50                push eax
00101F9A  E845F6FFFF        call 0x1015e4
00101F9F  83C408            add esp,byte +0x8
00101FA2  B86C0D1000        mov eax,0x100d6c
00101FA7  50                push eax
00101FA8  B876000000        mov eax,0x76
00101FAD  50                push eax
00101FAE  E831F6FFFF        call 0x1015e4
00101FB3  83C408            add esp,byte +0x8
00101FB6  B8780D1000        mov eax,0x100d78
00101FBB  50                push eax
00101FBC  B877000000        mov eax,0x77
00101FC1  50                push eax
00101FC2  E81DF6FFFF        call 0x1015e4
00101FC7  83C408            add esp,byte +0x8
00101FCA  B8840D1000        mov eax,0x100d84
00101FCF  50                push eax
00101FD0  B878000000        mov eax,0x78
00101FD5  50                push eax
00101FD6  E809F6FFFF        call 0x1015e4
00101FDB  83C408            add esp,byte +0x8
00101FDE  B8900D1000        mov eax,0x100d90
00101FE3  50                push eax
00101FE4  B879000000        mov eax,0x79
00101FE9  50                push eax
00101FEA  E8F5F5FFFF        call 0x1015e4
00101FEF  83C408            add esp,byte +0x8
00101FF2  B89C0D1000        mov eax,0x100d9c
00101FF7  50                push eax
00101FF8  B87A000000        mov eax,0x7a
00101FFD  50                push eax
00101FFE  E8E1F5FFFF        call 0x1015e4
00102003  83C408            add esp,byte +0x8
00102006  B8A80D1000        mov eax,0x100da8
0010200B  50                push eax
0010200C  B87B000000        mov eax,0x7b
00102011  50                push eax
00102012  E8CDF5FFFF        call 0x1015e4
00102017  83C408            add esp,byte +0x8
0010201A  B8B40D1000        mov eax,0x100db4
0010201F  50                push eax
00102020  B87C000000        mov eax,0x7c
00102025  50                push eax
00102026  E8B9F5FFFF        call 0x1015e4
0010202B  83C408            add esp,byte +0x8
0010202E  B8C00D1000        mov eax,0x100dc0
00102033  50                push eax
00102034  B87D000000        mov eax,0x7d
00102039  50                push eax
0010203A  E8A5F5FFFF        call 0x1015e4
0010203F  83C408            add esp,byte +0x8
00102042  B8CC0D1000        mov eax,0x100dcc
00102047  50                push eax
00102048  B87E000000        mov eax,0x7e
0010204D  50                push eax
0010204E  E891F5FFFF        call 0x1015e4
00102053  83C408            add esp,byte +0x8
00102056  B8D80D1000        mov eax,0x100dd8
0010205B  50                push eax
0010205C  B87F000000        mov eax,0x7f
00102061  50                push eax
00102062  E87DF5FFFF        call 0x1015e4
00102067  83C408            add esp,byte +0x8
0010206A  B8E40D1000        mov eax,0x100de4
0010206F  50                push eax
00102070  B880000000        mov eax,0x80
00102075  50                push eax
00102076  E869F5FFFF        call 0x1015e4
0010207B  83C408            add esp,byte +0x8
0010207E  B8F40D1000        mov eax,0x100df4
00102083  50                push eax
00102084  B881000000        mov eax,0x81
00102089  50                push eax
0010208A  E855F5FFFF        call 0x1015e4
0010208F  83C408            add esp,byte +0x8
00102092  B8040E1000        mov eax,0x100e04
00102097  50                push eax
00102098  B882000000        mov eax,0x82
0010209D  50                push eax
0010209E  E841F5FFFF        call 0x1015e4
001020A3  83C408            add esp,byte +0x8
001020A6  B8140E1000        mov eax,0x100e14
001020AB  50                push eax
001020AC  B883000000        mov eax,0x83
001020B1  50                push eax
001020B2  E82DF5FFFF        call 0x1015e4
001020B7  83C408            add esp,byte +0x8
001020BA  B8240E1000        mov eax,0x100e24
001020BF  50                push eax
001020C0  B884000000        mov eax,0x84
001020C5  50                push eax
001020C6  E819F5FFFF        call 0x1015e4
001020CB  83C408            add esp,byte +0x8
001020CE  B8340E1000        mov eax,0x100e34
001020D3  50                push eax
001020D4  B885000000        mov eax,0x85
001020D9  50                push eax
001020DA  E805F5FFFF        call 0x1015e4
001020DF  83C408            add esp,byte +0x8
001020E2  B8440E1000        mov eax,0x100e44
001020E7  50                push eax
001020E8  B886000000        mov eax,0x86
001020ED  50                push eax
001020EE  E8F1F4FFFF        call 0x1015e4
001020F3  83C408            add esp,byte +0x8
001020F6  B8540E1000        mov eax,0x100e54
001020FB  50                push eax
001020FC  B887000000        mov eax,0x87
00102101  50                push eax
00102102  E8DDF4FFFF        call 0x1015e4
00102107  83C408            add esp,byte +0x8
0010210A  B8640E1000        mov eax,0x100e64
0010210F  50                push eax
00102110  B888000000        mov eax,0x88
00102115  50                push eax
00102116  E8C9F4FFFF        call 0x1015e4
0010211B  83C408            add esp,byte +0x8
0010211E  B8740E1000        mov eax,0x100e74
00102123  50                push eax
00102124  B889000000        mov eax,0x89
00102129  50                push eax
0010212A  E8B5F4FFFF        call 0x1015e4
0010212F  83C408            add esp,byte +0x8
00102132  B8840E1000        mov eax,0x100e84
00102137  50                push eax
00102138  B88A000000        mov eax,0x8a
0010213D  50                push eax
0010213E  E8A1F4FFFF        call 0x1015e4
00102143  83C408            add esp,byte +0x8
00102146  B8940E1000        mov eax,0x100e94
0010214B  50                push eax
0010214C  B88B000000        mov eax,0x8b
00102151  50                push eax
00102152  E88DF4FFFF        call 0x1015e4
00102157  83C408            add esp,byte +0x8
0010215A  B8A40E1000        mov eax,0x100ea4
0010215F  50                push eax
00102160  B88C000000        mov eax,0x8c
00102165  50                push eax
00102166  E879F4FFFF        call 0x1015e4
0010216B  83C408            add esp,byte +0x8
0010216E  B8B40E1000        mov eax,0x100eb4
00102173  50                push eax
00102174  B88D000000        mov eax,0x8d
00102179  50                push eax
0010217A  E865F4FFFF        call 0x1015e4
0010217F  83C408            add esp,byte +0x8
00102182  B8C40E1000        mov eax,0x100ec4
00102187  50                push eax
00102188  B88E000000        mov eax,0x8e
0010218D  50                push eax
0010218E  E851F4FFFF        call 0x1015e4
00102193  83C408            add esp,byte +0x8
00102196  B8D40E1000        mov eax,0x100ed4
0010219B  50                push eax
0010219C  B88F000000        mov eax,0x8f
001021A1  50                push eax
001021A2  E83DF4FFFF        call 0x1015e4
001021A7  83C408            add esp,byte +0x8
001021AA  B8E40E1000        mov eax,0x100ee4
001021AF  50                push eax
001021B0  B890000000        mov eax,0x90
001021B5  50                push eax
001021B6  E829F4FFFF        call 0x1015e4
001021BB  83C408            add esp,byte +0x8
001021BE  B8F40E1000        mov eax,0x100ef4
001021C3  50                push eax
001021C4  B891000000        mov eax,0x91
001021C9  50                push eax
001021CA  E815F4FFFF        call 0x1015e4
001021CF  83C408            add esp,byte +0x8
001021D2  B8040F1000        mov eax,0x100f04
001021D7  50                push eax
001021D8  B892000000        mov eax,0x92
001021DD  50                push eax
001021DE  E801F4FFFF        call 0x1015e4
001021E3  83C408            add esp,byte +0x8
001021E6  B8140F1000        mov eax,0x100f14
001021EB  50                push eax
001021EC  B893000000        mov eax,0x93
001021F1  50                push eax
001021F2  E8EDF3FFFF        call 0x1015e4
001021F7  83C408            add esp,byte +0x8
001021FA  B8240F1000        mov eax,0x100f24
001021FF  50                push eax
00102200  B894000000        mov eax,0x94
00102205  50                push eax
00102206  E8D9F3FFFF        call 0x1015e4
0010220B  83C408            add esp,byte +0x8
0010220E  B8340F1000        mov eax,0x100f34
00102213  50                push eax
00102214  B895000000        mov eax,0x95
00102219  50                push eax
0010221A  E8C5F3FFFF        call 0x1015e4
0010221F  83C408            add esp,byte +0x8
00102222  B8440F1000        mov eax,0x100f44
00102227  50                push eax
00102228  B896000000        mov eax,0x96
0010222D  50                push eax
0010222E  E8B1F3FFFF        call 0x1015e4
00102233  83C408            add esp,byte +0x8
00102236  B8540F1000        mov eax,0x100f54
0010223B  50                push eax
0010223C  B897000000        mov eax,0x97
00102241  50                push eax
00102242  E89DF3FFFF        call 0x1015e4
00102247  83C408            add esp,byte +0x8
0010224A  B8640F1000        mov eax,0x100f64
0010224F  50                push eax
00102250  B898000000        mov eax,0x98
00102255  50                push eax
00102256  E889F3FFFF        call 0x1015e4
0010225B  83C408            add esp,byte +0x8
0010225E  B8740F1000        mov eax,0x100f74
00102263  50                push eax
00102264  B899000000        mov eax,0x99
00102269  50                push eax
0010226A  E875F3FFFF        call 0x1015e4
0010226F  83C408            add esp,byte +0x8
00102272  B8840F1000        mov eax,0x100f84
00102277  50                push eax
00102278  B89A000000        mov eax,0x9a
0010227D  50                push eax
0010227E  E861F3FFFF        call 0x1015e4
00102283  83C408            add esp,byte +0x8
00102286  B8940F1000        mov eax,0x100f94
0010228B  50                push eax
0010228C  B89B000000        mov eax,0x9b
00102291  50                push eax
00102292  E84DF3FFFF        call 0x1015e4
00102297  83C408            add esp,byte +0x8
0010229A  B8A40F1000        mov eax,0x100fa4
0010229F  50                push eax
001022A0  B89C000000        mov eax,0x9c
001022A5  50                push eax
001022A6  E839F3FFFF        call 0x1015e4
001022AB  83C408            add esp,byte +0x8
001022AE  B8B40F1000        mov eax,0x100fb4
001022B3  50                push eax
001022B4  B89D000000        mov eax,0x9d
001022B9  50                push eax
001022BA  E825F3FFFF        call 0x1015e4
001022BF  83C408            add esp,byte +0x8
001022C2  B8C40F1000        mov eax,0x100fc4
001022C7  50                push eax
001022C8  B89E000000        mov eax,0x9e
001022CD  50                push eax
001022CE  E811F3FFFF        call 0x1015e4
001022D3  83C408            add esp,byte +0x8
001022D6  B8D40F1000        mov eax,0x100fd4
001022DB  50                push eax
001022DC  B89F000000        mov eax,0x9f
001022E1  50                push eax
001022E2  E8FDF2FFFF        call 0x1015e4
001022E7  83C408            add esp,byte +0x8
001022EA  B8E40F1000        mov eax,0x100fe4
001022EF  50                push eax
001022F0  B8A0000000        mov eax,0xa0
001022F5  50                push eax
001022F6  E8E9F2FFFF        call 0x1015e4
001022FB  83C408            add esp,byte +0x8
001022FE  B8F40F1000        mov eax,0x100ff4
00102303  50                push eax
00102304  B8A1000000        mov eax,0xa1
00102309  50                push eax
0010230A  E8D5F2FFFF        call 0x1015e4
0010230F  83C408            add esp,byte +0x8
00102312  B804101000        mov eax,0x101004
00102317  50                push eax
00102318  B8A2000000        mov eax,0xa2
0010231D  50                push eax
0010231E  E8C1F2FFFF        call 0x1015e4
00102323  83C408            add esp,byte +0x8
00102326  B814101000        mov eax,0x101014
0010232B  50                push eax
0010232C  B8A3000000        mov eax,0xa3
00102331  50                push eax
00102332  E8ADF2FFFF        call 0x1015e4
00102337  83C408            add esp,byte +0x8
0010233A  B824101000        mov eax,0x101024
0010233F  50                push eax
00102340  B8A4000000        mov eax,0xa4
00102345  50                push eax
00102346  E899F2FFFF        call 0x1015e4
0010234B  83C408            add esp,byte +0x8
0010234E  B834101000        mov eax,0x101034
00102353  50                push eax
00102354  B8A5000000        mov eax,0xa5
00102359  50                push eax
0010235A  E885F2FFFF        call 0x1015e4
0010235F  83C408            add esp,byte +0x8
00102362  B844101000        mov eax,0x101044
00102367  50                push eax
00102368  B8A6000000        mov eax,0xa6
0010236D  50                push eax
0010236E  E871F2FFFF        call 0x1015e4
00102373  83C408            add esp,byte +0x8
00102376  B854101000        mov eax,0x101054
0010237B  50                push eax
0010237C  B8A7000000        mov eax,0xa7
00102381  50                push eax
00102382  E85DF2FFFF        call 0x1015e4
00102387  83C408            add esp,byte +0x8
0010238A  B864101000        mov eax,0x101064
0010238F  50                push eax
00102390  B8A8000000        mov eax,0xa8
00102395  50                push eax
00102396  E849F2FFFF        call 0x1015e4
0010239B  83C408            add esp,byte +0x8
0010239E  B874101000        mov eax,0x101074
001023A3  50                push eax
001023A4  B8A9000000        mov eax,0xa9
001023A9  50                push eax
001023AA  E835F2FFFF        call 0x1015e4
001023AF  83C408            add esp,byte +0x8
001023B2  B884101000        mov eax,0x101084
001023B7  50                push eax
001023B8  B8AA000000        mov eax,0xaa
001023BD  50                push eax
001023BE  E821F2FFFF        call 0x1015e4
001023C3  83C408            add esp,byte +0x8
001023C6  B894101000        mov eax,0x101094
001023CB  50                push eax
001023CC  B8AB000000        mov eax,0xab
001023D1  50                push eax
001023D2  E80DF2FFFF        call 0x1015e4
001023D7  83C408            add esp,byte +0x8
001023DA  B8A4101000        mov eax,0x1010a4
001023DF  50                push eax
001023E0  B8AC000000        mov eax,0xac
001023E5  50                push eax
001023E6  E8F9F1FFFF        call 0x1015e4
001023EB  83C408            add esp,byte +0x8
001023EE  B8B4101000        mov eax,0x1010b4
001023F3  50                push eax
001023F4  B8AD000000        mov eax,0xad
001023F9  50                push eax
001023FA  E8E5F1FFFF        call 0x1015e4
001023FF  83C408            add esp,byte +0x8
00102402  B8C4101000        mov eax,0x1010c4
00102407  50                push eax
00102408  B8AE000000        mov eax,0xae
0010240D  50                push eax
0010240E  E8D1F1FFFF        call 0x1015e4
00102413  83C408            add esp,byte +0x8
00102416  B8D4101000        mov eax,0x1010d4
0010241B  50                push eax
0010241C  B8AF000000        mov eax,0xaf
00102421  50                push eax
00102422  E8BDF1FFFF        call 0x1015e4
00102427  83C408            add esp,byte +0x8
0010242A  B8E4101000        mov eax,0x1010e4
0010242F  50                push eax
00102430  B8B0000000        mov eax,0xb0
00102435  50                push eax
00102436  E8A9F1FFFF        call 0x1015e4
0010243B  83C408            add esp,byte +0x8
0010243E  B8F4101000        mov eax,0x1010f4
00102443  50                push eax
00102444  B8B1000000        mov eax,0xb1
00102449  50                push eax
0010244A  E895F1FFFF        call 0x1015e4
0010244F  83C408            add esp,byte +0x8
00102452  B804111000        mov eax,0x101104
00102457  50                push eax
00102458  B8B2000000        mov eax,0xb2
0010245D  50                push eax
0010245E  E881F1FFFF        call 0x1015e4
00102463  83C408            add esp,byte +0x8
00102466  B814111000        mov eax,0x101114
0010246B  50                push eax
0010246C  B8B3000000        mov eax,0xb3
00102471  50                push eax
00102472  E86DF1FFFF        call 0x1015e4
00102477  83C408            add esp,byte +0x8
0010247A  B824111000        mov eax,0x101124
0010247F  50                push eax
00102480  B8B4000000        mov eax,0xb4
00102485  50                push eax
00102486  E859F1FFFF        call 0x1015e4
0010248B  83C408            add esp,byte +0x8
0010248E  B834111000        mov eax,0x101134
00102493  50                push eax
00102494  B8B5000000        mov eax,0xb5
00102499  50                push eax
0010249A  E845F1FFFF        call 0x1015e4
0010249F  83C408            add esp,byte +0x8
001024A2  B844111000        mov eax,0x101144
001024A7  50                push eax
001024A8  B8B6000000        mov eax,0xb6
001024AD  50                push eax
001024AE  E831F1FFFF        call 0x1015e4
001024B3  83C408            add esp,byte +0x8
001024B6  B854111000        mov eax,0x101154
001024BB  50                push eax
001024BC  B8B7000000        mov eax,0xb7
001024C1  50                push eax
001024C2  E81DF1FFFF        call 0x1015e4
001024C7  83C408            add esp,byte +0x8
001024CA  B864111000        mov eax,0x101164
001024CF  50                push eax
001024D0  B8B8000000        mov eax,0xb8
001024D5  50                push eax
001024D6  E809F1FFFF        call 0x1015e4
001024DB  83C408            add esp,byte +0x8
001024DE  B874111000        mov eax,0x101174
001024E3  50                push eax
001024E4  B8B9000000        mov eax,0xb9
001024E9  50                push eax
001024EA  E8F5F0FFFF        call 0x1015e4
001024EF  83C408            add esp,byte +0x8
001024F2  B884111000        mov eax,0x101184
001024F7  50                push eax
001024F8  B8BA000000        mov eax,0xba
001024FD  50                push eax
001024FE  E8E1F0FFFF        call 0x1015e4
00102503  83C408            add esp,byte +0x8
00102506  B894111000        mov eax,0x101194
0010250B  50                push eax
0010250C  B8BB000000        mov eax,0xbb
00102511  50                push eax
00102512  E8CDF0FFFF        call 0x1015e4
00102517  83C408            add esp,byte +0x8
0010251A  B8A4111000        mov eax,0x1011a4
0010251F  50                push eax
00102520  B8BC000000        mov eax,0xbc
00102525  50                push eax
00102526  E8B9F0FFFF        call 0x1015e4
0010252B  83C408            add esp,byte +0x8
0010252E  B8B4111000        mov eax,0x1011b4
00102533  50                push eax
00102534  B8BD000000        mov eax,0xbd
00102539  50                push eax
0010253A  E8A5F0FFFF        call 0x1015e4
0010253F  83C408            add esp,byte +0x8
00102542  B8C4111000        mov eax,0x1011c4
00102547  50                push eax
00102548  B8BE000000        mov eax,0xbe
0010254D  50                push eax
0010254E  E891F0FFFF        call 0x1015e4
00102553  83C408            add esp,byte +0x8
00102556  B8D4111000        mov eax,0x1011d4
0010255B  50                push eax
0010255C  B8BF000000        mov eax,0xbf
00102561  50                push eax
00102562  E87DF0FFFF        call 0x1015e4
00102567  83C408            add esp,byte +0x8
0010256A  B8E4111000        mov eax,0x1011e4
0010256F  50                push eax
00102570  B8C0000000        mov eax,0xc0
00102575  50                push eax
00102576  E869F0FFFF        call 0x1015e4
0010257B  83C408            add esp,byte +0x8
0010257E  B8F4111000        mov eax,0x1011f4
00102583  50                push eax
00102584  B8C1000000        mov eax,0xc1
00102589  50                push eax
0010258A  E855F0FFFF        call 0x1015e4
0010258F  83C408            add esp,byte +0x8
00102592  B804121000        mov eax,0x101204
00102597  50                push eax
00102598  B8C2000000        mov eax,0xc2
0010259D  50                push eax
0010259E  E841F0FFFF        call 0x1015e4
001025A3  83C408            add esp,byte +0x8
001025A6  B814121000        mov eax,0x101214
001025AB  50                push eax
001025AC  B8C3000000        mov eax,0xc3
001025B1  50                push eax
001025B2  E82DF0FFFF        call 0x1015e4
001025B7  83C408            add esp,byte +0x8
001025BA  B824121000        mov eax,0x101224
001025BF  50                push eax
001025C0  B8C4000000        mov eax,0xc4
001025C5  50                push eax
001025C6  E819F0FFFF        call 0x1015e4
001025CB  83C408            add esp,byte +0x8
001025CE  B834121000        mov eax,0x101234
001025D3  50                push eax
001025D4  B8C5000000        mov eax,0xc5
001025D9  50                push eax
001025DA  E805F0FFFF        call 0x1015e4
001025DF  83C408            add esp,byte +0x8
001025E2  B844121000        mov eax,0x101244
001025E7  50                push eax
001025E8  B8C6000000        mov eax,0xc6
001025ED  50                push eax
001025EE  E8F1EFFFFF        call 0x1015e4
001025F3  83C408            add esp,byte +0x8
001025F6  B854121000        mov eax,0x101254
001025FB  50                push eax
001025FC  B8C7000000        mov eax,0xc7
00102601  50                push eax
00102602  E8DDEFFFFF        call 0x1015e4
00102607  83C408            add esp,byte +0x8
0010260A  B864121000        mov eax,0x101264
0010260F  50                push eax
00102610  B8C8000000        mov eax,0xc8
00102615  50                push eax
00102616  E8C9EFFFFF        call 0x1015e4
0010261B  83C408            add esp,byte +0x8
0010261E  B874121000        mov eax,0x101274
00102623  50                push eax
00102624  B8C9000000        mov eax,0xc9
00102629  50                push eax
0010262A  E8B5EFFFFF        call 0x1015e4
0010262F  83C408            add esp,byte +0x8
00102632  B884121000        mov eax,0x101284
00102637  50                push eax
00102638  B8CA000000        mov eax,0xca
0010263D  50                push eax
0010263E  E8A1EFFFFF        call 0x1015e4
00102643  83C408            add esp,byte +0x8
00102646  B894121000        mov eax,0x101294
0010264B  50                push eax
0010264C  B8CB000000        mov eax,0xcb
00102651  50                push eax
00102652  E88DEFFFFF        call 0x1015e4
00102657  83C408            add esp,byte +0x8
0010265A  B8A4121000        mov eax,0x1012a4
0010265F  50                push eax
00102660  B8CC000000        mov eax,0xcc
00102665  50                push eax
00102666  E879EFFFFF        call 0x1015e4
0010266B  83C408            add esp,byte +0x8
0010266E  B8B4121000        mov eax,0x1012b4
00102673  50                push eax
00102674  B8CD000000        mov eax,0xcd
00102679  50                push eax
0010267A  E865EFFFFF        call 0x1015e4
0010267F  83C408            add esp,byte +0x8
00102682  B8C4121000        mov eax,0x1012c4
00102687  50                push eax
00102688  B8CE000000        mov eax,0xce
0010268D  50                push eax
0010268E  E851EFFFFF        call 0x1015e4
00102693  83C408            add esp,byte +0x8
00102696  B8D4121000        mov eax,0x1012d4
0010269B  50                push eax
0010269C  B8CF000000        mov eax,0xcf
001026A1  50                push eax
001026A2  E83DEFFFFF        call 0x1015e4
001026A7  83C408            add esp,byte +0x8
001026AA  B8E4121000        mov eax,0x1012e4
001026AF  50                push eax
001026B0  B8D0000000        mov eax,0xd0
001026B5  50                push eax
001026B6  E829EFFFFF        call 0x1015e4
001026BB  83C408            add esp,byte +0x8
001026BE  B8F4121000        mov eax,0x1012f4
001026C3  50                push eax
001026C4  B8D1000000        mov eax,0xd1
001026C9  50                push eax
001026CA  E815EFFFFF        call 0x1015e4
001026CF  83C408            add esp,byte +0x8
001026D2  B804131000        mov eax,0x101304
001026D7  50                push eax
001026D8  B8D2000000        mov eax,0xd2
001026DD  50                push eax
001026DE  E801EFFFFF        call 0x1015e4
001026E3  83C408            add esp,byte +0x8
001026E6  B814131000        mov eax,0x101314
001026EB  50                push eax
001026EC  B8D3000000        mov eax,0xd3
001026F1  50                push eax
001026F2  E8EDEEFFFF        call 0x1015e4
001026F7  83C408            add esp,byte +0x8
001026FA  B824131000        mov eax,0x101324
001026FF  50                push eax
00102700  B8D4000000        mov eax,0xd4
00102705  50                push eax
00102706  E8D9EEFFFF        call 0x1015e4
0010270B  83C408            add esp,byte +0x8
0010270E  B834131000        mov eax,0x101334
00102713  50                push eax
00102714  B8D5000000        mov eax,0xd5
00102719  50                push eax
0010271A  E8C5EEFFFF        call 0x1015e4
0010271F  83C408            add esp,byte +0x8
00102722  B844131000        mov eax,0x101344
00102727  50                push eax
00102728  B8D6000000        mov eax,0xd6
0010272D  50                push eax
0010272E  E8B1EEFFFF        call 0x1015e4
00102733  83C408            add esp,byte +0x8
00102736  B854131000        mov eax,0x101354
0010273B  50                push eax
0010273C  B8D7000000        mov eax,0xd7
00102741  50                push eax
00102742  E89DEEFFFF        call 0x1015e4
00102747  83C408            add esp,byte +0x8
0010274A  B864131000        mov eax,0x101364
0010274F  50                push eax
00102750  B8D8000000        mov eax,0xd8
00102755  50                push eax
00102756  E889EEFFFF        call 0x1015e4
0010275B  83C408            add esp,byte +0x8
0010275E  B874131000        mov eax,0x101374
00102763  50                push eax
00102764  B8D9000000        mov eax,0xd9
00102769  50                push eax
0010276A  E875EEFFFF        call 0x1015e4
0010276F  83C408            add esp,byte +0x8
00102772  B884131000        mov eax,0x101384
00102777  50                push eax
00102778  B8DA000000        mov eax,0xda
0010277D  50                push eax
0010277E  E861EEFFFF        call 0x1015e4
00102783  83C408            add esp,byte +0x8
00102786  B894131000        mov eax,0x101394
0010278B  50                push eax
0010278C  B8DB000000        mov eax,0xdb
00102791  50                push eax
00102792  E84DEEFFFF        call 0x1015e4
00102797  83C408            add esp,byte +0x8
0010279A  B8A4131000        mov eax,0x1013a4
0010279F  50                push eax
001027A0  B8DC000000        mov eax,0xdc
001027A5  50                push eax
001027A6  E839EEFFFF        call 0x1015e4
001027AB  83C408            add esp,byte +0x8
001027AE  B8B4131000        mov eax,0x1013b4
001027B3  50                push eax
001027B4  B8DD000000        mov eax,0xdd
001027B9  50                push eax
001027BA  E825EEFFFF        call 0x1015e4
001027BF  83C408            add esp,byte +0x8
001027C2  B8C4131000        mov eax,0x1013c4
001027C7  50                push eax
001027C8  B8DE000000        mov eax,0xde
001027CD  50                push eax
001027CE  E811EEFFFF        call 0x1015e4
001027D3  83C408            add esp,byte +0x8
001027D6  B8D4131000        mov eax,0x1013d4
001027DB  50                push eax
001027DC  B8DF000000        mov eax,0xdf
001027E1  50                push eax
001027E2  E8FDEDFFFF        call 0x1015e4
001027E7  83C408            add esp,byte +0x8
001027EA  B8E4131000        mov eax,0x1013e4
001027EF  50                push eax
001027F0  B8E0000000        mov eax,0xe0
001027F5  50                push eax
001027F6  E8E9EDFFFF        call 0x1015e4
001027FB  83C408            add esp,byte +0x8
001027FE  B8F4131000        mov eax,0x1013f4
00102803  50                push eax
00102804  B8E1000000        mov eax,0xe1
00102809  50                push eax
0010280A  E8D5EDFFFF        call 0x1015e4
0010280F  83C408            add esp,byte +0x8
00102812  B804141000        mov eax,0x101404
00102817  50                push eax
00102818  B8E2000000        mov eax,0xe2
0010281D  50                push eax
0010281E  E8C1EDFFFF        call 0x1015e4
00102823  83C408            add esp,byte +0x8
00102826  B814141000        mov eax,0x101414
0010282B  50                push eax
0010282C  B8E3000000        mov eax,0xe3
00102831  50                push eax
00102832  E8ADEDFFFF        call 0x1015e4
00102837  83C408            add esp,byte +0x8
0010283A  B824141000        mov eax,0x101424
0010283F  50                push eax
00102840  B8E4000000        mov eax,0xe4
00102845  50                push eax
00102846  E899EDFFFF        call 0x1015e4
0010284B  83C408            add esp,byte +0x8
0010284E  B834141000        mov eax,0x101434
00102853  50                push eax
00102854  B8E5000000        mov eax,0xe5
00102859  50                push eax
0010285A  E885EDFFFF        call 0x1015e4
0010285F  83C408            add esp,byte +0x8
00102862  B844141000        mov eax,0x101444
00102867  50                push eax
00102868  B8E6000000        mov eax,0xe6
0010286D  50                push eax
0010286E  E871EDFFFF        call 0x1015e4
00102873  83C408            add esp,byte +0x8
00102876  B854141000        mov eax,0x101454
0010287B  50                push eax
0010287C  B8E7000000        mov eax,0xe7
00102881  50                push eax
00102882  E85DEDFFFF        call 0x1015e4
00102887  83C408            add esp,byte +0x8
0010288A  B864141000        mov eax,0x101464
0010288F  50                push eax
00102890  B8E8000000        mov eax,0xe8
00102895  50                push eax
00102896  E849EDFFFF        call 0x1015e4
0010289B  83C408            add esp,byte +0x8
0010289E  B874141000        mov eax,0x101474
001028A3  50                push eax
001028A4  B8E9000000        mov eax,0xe9
001028A9  50                push eax
001028AA  E835EDFFFF        call 0x1015e4
001028AF  83C408            add esp,byte +0x8
001028B2  B884141000        mov eax,0x101484
001028B7  50                push eax
001028B8  B8EA000000        mov eax,0xea
001028BD  50                push eax
001028BE  E821EDFFFF        call 0x1015e4
001028C3  83C408            add esp,byte +0x8
001028C6  B894141000        mov eax,0x101494
001028CB  50                push eax
001028CC  B8EB000000        mov eax,0xeb
001028D1  50                push eax
001028D2  E80DEDFFFF        call 0x1015e4
001028D7  83C408            add esp,byte +0x8
001028DA  B8A4141000        mov eax,0x1014a4
001028DF  50                push eax
001028E0  B8EC000000        mov eax,0xec
001028E5  50                push eax
001028E6  E8F9ECFFFF        call 0x1015e4
001028EB  83C408            add esp,byte +0x8
001028EE  B8B4141000        mov eax,0x1014b4
001028F3  50                push eax
001028F4  B8ED000000        mov eax,0xed
001028F9  50                push eax
001028FA  E8E5ECFFFF        call 0x1015e4
001028FF  83C408            add esp,byte +0x8
00102902  B8C4141000        mov eax,0x1014c4
00102907  50                push eax
00102908  B8EE000000        mov eax,0xee
0010290D  50                push eax
0010290E  E8D1ECFFFF        call 0x1015e4
00102913  83C408            add esp,byte +0x8
00102916  B8D4141000        mov eax,0x1014d4
0010291B  50                push eax
0010291C  B8EF000000        mov eax,0xef
00102921  50                push eax
00102922  E8BDECFFFF        call 0x1015e4
00102927  83C408            add esp,byte +0x8
0010292A  B8E4141000        mov eax,0x1014e4
0010292F  50                push eax
00102930  B8F0000000        mov eax,0xf0
00102935  50                push eax
00102936  E8A9ECFFFF        call 0x1015e4
0010293B  83C408            add esp,byte +0x8
0010293E  B8F4141000        mov eax,0x1014f4
00102943  50                push eax
00102944  B8F1000000        mov eax,0xf1
00102949  50                push eax
0010294A  E895ECFFFF        call 0x1015e4
0010294F  83C408            add esp,byte +0x8
00102952  B804151000        mov eax,0x101504
00102957  50                push eax
00102958  B8F2000000        mov eax,0xf2
0010295D  50                push eax
0010295E  E881ECFFFF        call 0x1015e4
00102963  83C408            add esp,byte +0x8
00102966  B814151000        mov eax,0x101514
0010296B  50                push eax
0010296C  B8F3000000        mov eax,0xf3
00102971  50                push eax
00102972  E86DECFFFF        call 0x1015e4
00102977  83C408            add esp,byte +0x8
0010297A  B824151000        mov eax,0x101524
0010297F  50                push eax
00102980  B8F4000000        mov eax,0xf4
00102985  50                push eax
00102986  E859ECFFFF        call 0x1015e4
0010298B  83C408            add esp,byte +0x8
0010298E  B834151000        mov eax,0x101534
00102993  50                push eax
00102994  B8F5000000        mov eax,0xf5
00102999  50                push eax
0010299A  E845ECFFFF        call 0x1015e4
0010299F  83C408            add esp,byte +0x8
001029A2  B844151000        mov eax,0x101544
001029A7  50                push eax
001029A8  B8F6000000        mov eax,0xf6
001029AD  50                push eax
001029AE  E831ECFFFF        call 0x1015e4
001029B3  83C408            add esp,byte +0x8
001029B6  B854151000        mov eax,0x101554
001029BB  50                push eax
001029BC  B8F7000000        mov eax,0xf7
001029C1  50                push eax
001029C2  E81DECFFFF        call 0x1015e4
001029C7  83C408            add esp,byte +0x8
001029CA  B864151000        mov eax,0x101564
001029CF  50                push eax
001029D0  B8F8000000        mov eax,0xf8
001029D5  50                push eax
001029D6  E809ECFFFF        call 0x1015e4
001029DB  83C408            add esp,byte +0x8
001029DE  B874151000        mov eax,0x101574
001029E3  50                push eax
001029E4  B8F9000000        mov eax,0xf9
001029E9  50                push eax
001029EA  E8F5EBFFFF        call 0x1015e4
001029EF  83C408            add esp,byte +0x8
001029F2  B884151000        mov eax,0x101584
001029F7  50                push eax
001029F8  B8FA000000        mov eax,0xfa
001029FD  50                push eax
001029FE  E8E1EBFFFF        call 0x1015e4
00102A03  83C408            add esp,byte +0x8
00102A06  B894151000        mov eax,0x101594
00102A0B  50                push eax
00102A0C  B8FB000000        mov eax,0xfb
00102A11  50                push eax
00102A12  E8CDEBFFFF        call 0x1015e4
00102A17  83C408            add esp,byte +0x8
00102A1A  B8A4151000        mov eax,0x1015a4
00102A1F  50                push eax
00102A20  B8FC000000        mov eax,0xfc
00102A25  50                push eax
00102A26  E8B9EBFFFF        call 0x1015e4
00102A2B  83C408            add esp,byte +0x8
00102A2E  B8B4151000        mov eax,0x1015b4
00102A33  50                push eax
00102A34  B8FD000000        mov eax,0xfd
00102A39  50                push eax
00102A3A  E8A5EBFFFF        call 0x1015e4
00102A3F  83C408            add esp,byte +0x8
00102A42  B8C4151000        mov eax,0x1015c4
00102A47  50                push eax
00102A48  B8FE000000        mov eax,0xfe
00102A4D  50                push eax
00102A4E  E891EBFFFF        call 0x1015e4
00102A53  83C408            add esp,byte +0x8
00102A56  B8D4151000        mov eax,0x1015d4
00102A5B  50                push eax
00102A5C  B8FF000000        mov eax,0xff
00102A61  50                push eax
00102A62  E87DEBFFFF        call 0x1015e4
00102A67  83C408            add esp,byte +0x8
00102A6A  B800080000        mov eax,0x800
00102A6F  50                push eax
00102A70  E8FAD6FFFF        call 0x10016f
00102A75  83C404            add esp,byte +0x4
00102A78  C9                leave
00102A79  C3                ret
00102A7A  60                pusha
00102A7B  668CDB            mov bx,ds
00102A7E  53                push ebx
00102A7F  66BB1000          mov bx,0x10
00102A83  668EDB            mov ds,bx
00102A86  668EC3            mov es,bx
00102A89  668EE3            mov fs,bx
00102A8C  668EEB            mov gs,bx
00102A8F  E877DCFFFF        call 0x10070b
00102A94  5B                pop ebx
00102A95  668EDB            mov ds,bx
00102A98  668EC3            mov es,bx
00102A9B  668EE3            mov fs,bx
00102A9E  668EEB            mov gs,bx
00102AA1  61                popa
00102AA2  83C408            add esp,byte +0x8
00102AA5  FB                sti
00102AA6  CF                iret
00102AA7  005589            add [ebp-0x77],dl
00102AAA  E581              in eax,0x81
00102AAC  EC                in al,dx
00102AAD  0000              add [eax],al
00102AAF  0000              add [eax],al
00102AB1  B811000000        mov eax,0x11
00102AB6  50                push eax
00102AB7  B820000000        mov eax,0x20
00102ABC  50                push eax
00102ABD  E83ED6FFFF        call 0x100100
00102AC2  83C408            add esp,byte +0x8
00102AC5  B811000000        mov eax,0x11
00102ACA  50                push eax
00102ACB  B8A0000000        mov eax,0xa0
00102AD0  50                push eax
00102AD1  E82AD6FFFF        call 0x100100
00102AD6  83C408            add esp,byte +0x8
00102AD9  B820000000        mov eax,0x20
00102ADE  50                push eax
00102ADF  B821000000        mov eax,0x21
00102AE4  50                push eax
00102AE5  E816D6FFFF        call 0x100100
00102AEA  83C408            add esp,byte +0x8
00102AED  B828000000        mov eax,0x28
00102AF2  50                push eax
00102AF3  B8A1000000        mov eax,0xa1
00102AF8  50                push eax
00102AF9  E802D6FFFF        call 0x100100
00102AFE  83C408            add esp,byte +0x8
00102B01  B804000000        mov eax,0x4
00102B06  50                push eax
00102B07  B821000000        mov eax,0x21
00102B0C  50                push eax
00102B0D  E8EED5FFFF        call 0x100100
00102B12  83C408            add esp,byte +0x8
00102B15  B802000000        mov eax,0x2
00102B1A  50                push eax
00102B1B  B8A1000000        mov eax,0xa1
00102B20  50                push eax
00102B21  E8DAD5FFFF        call 0x100100
00102B26  83C408            add esp,byte +0x8
00102B29  B801000000        mov eax,0x1
00102B2E  50                push eax
00102B2F  B821000000        mov eax,0x21
00102B34  50                push eax
00102B35  E8C6D5FFFF        call 0x100100
00102B3A  83C408            add esp,byte +0x8
00102B3D  B801000000        mov eax,0x1
00102B42  50                push eax
00102B43  B8A1000000        mov eax,0xa1
00102B48  50                push eax
00102B49  E8B2D5FFFF        call 0x100100
00102B4E  83C408            add esp,byte +0x8
00102B51  B800000000        mov eax,0x0
00102B56  50                push eax
00102B57  B821000000        mov eax,0x21
00102B5C  50                push eax
00102B5D  E89ED5FFFF        call 0x100100
00102B62  83C408            add esp,byte +0x8
00102B65  B800000000        mov eax,0x0
00102B6A  50                push eax
00102B6B  B8A1000000        mov eax,0xa1
00102B70  50                push eax
00102B71  E88AD5FFFF        call 0x100100
00102B76  83C408            add esp,byte +0x8
00102B79  C9                leave
00102B7A  C3                ret
00102B7B  55                push ebp
00102B7C  89E5              mov ebp,esp
00102B7E  81EC00000000      sub esp,0x0
00102B84  0FB64508          movzx eax,byte [ebp+0x8]
00102B88  83E00F            and eax,byte +0xf
00102B8B  83C020            add eax,byte +0x20
00102B8E  0FB6C0            movzx eax,al
00102B91  8B4D0C            mov ecx,[ebp+0xc]
00102B94  51                push ecx
00102B95  50                push eax
00102B96  E852DBFFFF        call 0x1006ed
00102B9B  83C408            add esp,byte +0x8
00102B9E  C9                leave
00102B9F  C3                ret
00102BA0  55                push ebp
00102BA1  89E5              mov ebp,esp
00102BA3  81EC04000000      sub esp,0x4
00102BA9  B800000000        mov eax,0x0
00102BAE  89050C501000      mov [dword 0x10500c],eax
00102BB4  B800001000        mov eax,0x100000
00102BB9  8945FC            mov [ebp-0x4],eax
00102BBC  8B45FC            mov eax,[ebp-0x4]
00102BBF  B9D83C1000        mov ecx,0x103cd8
00102BC4  39C8              cmp eax,ecx
00102BC6  0F838D000000      jnc near 0x102c59
00102BCC  8B45FC            mov eax,[ebp-0x4]
00102BCF  8B00              mov eax,[eax]
00102BD1  81F821433412      cmp eax,0x12344321
00102BD7  0F8569000000      jnz near 0x102c46
00102BDD  8B45FC            mov eax,[ebp-0x4]
00102BE0  83C004            add eax,byte +0x4
00102BE3  8B00              mov eax,[eax]
00102BE5  81F834122143      cmp eax,0x43211234
00102BEB  0F8555000000      jnz near 0x102c46
00102BF1  8B050C501000      mov eax,[dword 0x10500c]
00102BF7  83F814            cmp eax,byte +0x14
00102BFA  0F8213000000      jc near 0x102c13
00102C00  B8E4401000        mov eax,0x1040e4
00102C05  50                push eax
00102C06  E872D7FFFF        call 0x10037d
00102C0B  83C404            add esp,byte +0x4
00102C0E  E946000000        jmp 0x102c59
00102C13  8B050C501000      mov eax,[dword 0x10500c]
00102C19  89C1              mov ecx,eax
00102C1B  40                inc eax
00102C1C  89050C501000      mov [dword 0x10500c],eax
00102C22  C1E102            shl ecx,byte 0x2
00102C25  B830D61000        mov eax,0x10d630
00102C2A  01C8              add eax,ecx
00102C2C  8B4DFC            mov ecx,[ebp-0x4]
00102C2F  8908              mov [eax],ecx
00102C31  8B45FC            mov eax,[ebp-0x4]
00102C34  83C00C            add eax,byte +0xc
00102C37  50                push eax
00102C38  B801411000        mov eax,0x104101
00102C3D  50                push eax
00102C3E  E83AD7FFFF        call 0x10037d
00102C43  83C408            add esp,byte +0x8
00102C46  8B45FC            mov eax,[ebp-0x4]
00102C49  89C1              mov ecx,eax
00102C4B  81C080000000      add eax,0x80
00102C51  8945FC            mov [ebp-0x4],eax
00102C54  E963FFFFFF        jmp 0x102bbc
00102C59  C9                leave
00102C5A  C3                ret
00102C5B  55                push ebp
00102C5C  89E5              mov ebp,esp
00102C5E  81EC04000000      sub esp,0x4
00102C64  B800000000        mov eax,0x0
00102C69  8945FC            mov [ebp-0x4],eax
00102C6C  8B45FC            mov eax,[ebp-0x4]
00102C6F  8B0D0C501000      mov ecx,[dword 0x10500c]
00102C75  39C8              cmp eax,ecx
00102C77  0F834E000000      jnc near 0x102ccb
00102C7D  E90B000000        jmp 0x102c8d
00102C82  8B45FC            mov eax,[ebp-0x4]
00102C85  89C1              mov ecx,eax
00102C87  40                inc eax
00102C88  8945FC            mov [ebp-0x4],eax
00102C8B  EBDF              jmp short 0x102c6c
00102C8D  8B45FC            mov eax,[ebp-0x4]
00102C90  C1E002            shl eax,byte 0x2
00102C93  B930D61000        mov ecx,0x10d630
00102C98  01C1              add ecx,eax
00102C9A  8B09              mov ecx,[ecx]
00102C9C  83C10C            add ecx,byte +0xc
00102C9F  8B4508            mov eax,[ebp+0x8]
00102CA2  50                push eax
00102CA3  51                push ecx
00102CA4  E8D30F0000        call 0x103c7c
00102CA9  83C408            add esp,byte +0x8
00102CAC  83F800            cmp eax,byte +0x0
00102CAF  0F8514000000      jnz near 0x102cc9
00102CB5  8B45FC            mov eax,[ebp-0x4]
00102CB8  C1E002            shl eax,byte 0x2
00102CBB  B930D61000        mov ecx,0x10d630
00102CC0  01C1              add ecx,eax
00102CC2  8B01              mov eax,[ecx]
00102CC4  E907000000        jmp 0x102cd0
00102CC9  EBB7              jmp short 0x102c82
00102CCB  B800000000        mov eax,0x0
00102CD0  C9                leave
00102CD1  C3                ret
00102CD2  0000              add [eax],al
00102CD4  55                push ebp
00102CD5  89E5              mov ebp,esp
00102CD7  81EC04000000      sub esp,0x4
00102CDD  8B0514501000      mov eax,[dword 0x105014]
00102CE3  89C1              mov ecx,eax
00102CE5  40                inc eax
00102CE6  890514501000      mov [dword 0x105014],eax
00102CEC  B800000000        mov eax,0x0
00102CF1  8945FC            mov [ebp-0x4],eax
00102CF4  8B45FC            mov eax,[ebp-0x4]
00102CF7  8B0D10501000      mov ecx,[dword 0x105010]
00102CFD  39C8              cmp eax,ecx
00102CFF  0F832A000000      jnc near 0x102d2f
00102D05  E90B000000        jmp 0x102d15
00102D0A  8B45FC            mov eax,[ebp-0x4]
00102D0D  89C1              mov ecx,eax
00102D0F  40                inc eax
00102D10  8945FC            mov [ebp-0x4],eax
00102D13  EBDF              jmp short 0x102cf4
00102D15  8B45FC            mov eax,[ebp-0x4]
00102D18  C1E002            shl eax,byte 0x2
00102D1B  B980D61000        mov ecx,0x10d680
00102D20  01C1              add ecx,eax
00102D22  8B4508            mov eax,[ebp+0x8]
00102D25  50                push eax
00102D26  8B09              mov ecx,[ecx]
00102D28  FFD1              call ecx
00102D2A  83C404            add esp,byte +0x4
00102D2D  EBDB              jmp short 0x102d0a
00102D2F  C9                leave
00102D30  C3                ret
00102D31  55                push ebp
00102D32  89E5              mov ebp,esp
00102D34  81EC04000000      sub esp,0x4
00102D3A  B8D42C1000        mov eax,0x102cd4
00102D3F  50                push eax
00102D40  B800000000        mov eax,0x0
00102D45  50                push eax
00102D46  E830FEFFFF        call 0x102b7b
00102D4B  83C408            add esp,byte +0x8
00102D4E  B89B2E0000        mov eax,0x2e9b
00102D53  8945FC            mov [ebp-0x4],eax
00102D56  B836000000        mov eax,0x36
00102D5B  50                push eax
00102D5C  B843000000        mov eax,0x43
00102D61  50                push eax
00102D62  E899D3FFFF        call 0x100100
00102D67  83C408            add esp,byte +0x8
00102D6A  8B45FC            mov eax,[ebp-0x4]
00102D6D  81E0FF000000      and eax,0xff
00102D73  0FB6C0            movzx eax,al
00102D76  50                push eax
00102D77  B840000000        mov eax,0x40
00102D7C  50                push eax
00102D7D  E87ED3FFFF        call 0x100100
00102D82  83C408            add esp,byte +0x8
00102D85  8B45FC            mov eax,[ebp-0x4]
00102D88  C1E808            shr eax,byte 0x8
00102D8B  81E0FF000000      and eax,0xff
00102D91  0FB6C0            movzx eax,al
00102D94  50                push eax
00102D95  B840000000        mov eax,0x40
00102D9A  50                push eax
00102D9B  E860D3FFFF        call 0x100100
00102DA0  83C408            add esp,byte +0x8
00102DA3  C9                leave
00102DA4  C3                ret
00102DA5  55                push ebp
00102DA6  89E5              mov ebp,esp
00102DA8  81EC00000000      sub esp,0x0
00102DAE  8B0510501000      mov eax,[dword 0x105010]
00102DB4  81F880000000      cmp eax,0x80
00102DBA  0F8213000000      jc near 0x102dd3
00102DC0  B814411000        mov eax,0x104114
00102DC5  50                push eax
00102DC6  E8B2D5FFFF        call 0x10037d
00102DCB  83C404            add esp,byte +0x4
00102DCE  E924000000        jmp 0x102df7
00102DD3  8B0510501000      mov eax,[dword 0x105010]
00102DD9  C1E002            shl eax,byte 0x2
00102DDC  B980D61000        mov ecx,0x10d680
00102DE1  01C1              add ecx,eax
00102DE3  8B4508            mov eax,[ebp+0x8]
00102DE6  8901              mov [ecx],eax
00102DE8  8B0510501000      mov eax,[dword 0x105010]
00102DEE  89C1              mov ecx,eax
00102DF0  40                inc eax
00102DF1  890510501000      mov [dword 0x105010],eax
00102DF7  C9                leave
00102DF8  C3                ret
00102DF9  55                push ebp
00102DFA  89E5              mov ebp,esp
00102DFC  81EC04000000      sub esp,0x4
00102E02  8B0514501000      mov eax,[dword 0x105014]
00102E08  8945FC            mov [ebp-0x4],eax
00102E0B  8B45FC            mov eax,[ebp-0x4]
00102E0E  8B4D08            mov ecx,[ebp+0x8]
00102E11  01C8              add eax,ecx
00102E13  8B0D14501000      mov ecx,[dword 0x105014]
00102E19  39C8              cmp eax,ecx
00102E1B  0F8303000000      jnc near 0x102e24
00102E21  F4                hlt
00102E22  EBE7              jmp short 0x102e0b
00102E24  C9                leave
00102E25  C3                ret
00102E26  55                push ebp
00102E27  89E5              mov ebp,esp
00102E29  81EC00000000      sub esp,0x0
00102E2F  8B4508            mov eax,[ebp+0x8]
00102E32  B90A000000        mov ecx,0xa
00102E37  31D2              xor edx,edx
00102E39  F7F1              div ecx
00102E3B  50                push eax
00102E3C  E8B8FFFFFF        call 0x102df9
00102E41  83C404            add esp,byte +0x4
00102E44  C9                leave
00102E45  C3                ret
00102E46  0000              add [eax],al
00102E48  55                push ebp
00102E49  89E5              mov ebp,esp
00102E4B  81EC00000000      sub esp,0x0
00102E51  C9                leave
00102E52  C3                ret
00102E53  005589            add [ebp-0x77],dl
00102E56  E581              in eax,0x81
00102E58  EC                in al,dx
00102E59  0000              add [eax],al
00102E5B  0000              add [eax],al
00102E5D  B810000000        mov eax,0x10
00102E62  50                push eax
00102E63  B800000000        mov eax,0x0
00102E68  50                push eax
00102E69  B880D81000        mov eax,0x10d880
00102E6E  50                push eax
00102E6F  E8CC0D0000        call 0x103c40
00102E74  83C40C            add esp,byte +0xc
00102E77  C9                leave
00102E78  C3                ret
00102E79  0000              add [eax],al
00102E7B  0000              add [eax],al
00102E7D  0000              add [eax],al
00102E7F  005589            add [ebp-0x77],dl
00102E82  E581              in eax,0x81
00102E84  EC                in al,dx
00102E85  0000              add [eax],al
00102E87  0000              add [eax],al
00102E89  B801000000        mov eax,0x1
00102E8E  880518501000      mov [dword 0x105018],al
00102E94  B860000000        mov eax,0x60
00102E99  50                push eax
00102E9A  E886D2FFFF        call 0x100125
00102E9F  83C404            add esp,byte +0x4
00102EA2  880519501000      mov [dword 0x105019],al
00102EA8  8B0590D81000      mov eax,[dword 0x10d890]
00102EAE  83F800            cmp eax,byte +0x0
00102EB1  0F841F000000      jz near 0x102ed6
00102EB7  0FBE051C501000    movsx eax,byte [dword 0x10501c]
00102EBE  83F800            cmp eax,byte +0x0
00102EC1  0F840F000000      jz near 0x102ed6
00102EC7  8B4508            mov eax,[ebp+0x8]
00102ECA  50                push eax
00102ECB  8B0590D81000      mov eax,[dword 0x10d890]
00102ED1  FFD0              call eax
00102ED3  83C404            add esp,byte +0x4
00102ED6  C9                leave
00102ED7  C3                ret
00102ED8  55                push ebp
00102ED9  89E5              mov ebp,esp
00102EDB  81EC00000000      sub esp,0x0
00102EE1  B801000000        mov eax,0x1
00102EE6  88051A501000      mov [dword 0x10501a],al
00102EEC  B860000000        mov eax,0x60
00102EF1  50                push eax
00102EF2  E82ED2FFFF        call 0x100125
00102EF7  83C404            add esp,byte +0x4
00102EFA  88051B501000      mov [dword 0x10501b],al
00102F00  8B0594D81000      mov eax,[dword 0x10d894]
00102F06  83F800            cmp eax,byte +0x0
00102F09  0F841F000000      jz near 0x102f2e
00102F0F  0FBE051C501000    movsx eax,byte [dword 0x10501c]
00102F16  83F800            cmp eax,byte +0x0
00102F19  0F840F000000      jz near 0x102f2e
00102F1F  8B4508            mov eax,[ebp+0x8]
00102F22  50                push eax
00102F23  8B0594D81000      mov eax,[dword 0x10d894]
00102F29  FFD0              call eax
00102F2B  83C404            add esp,byte +0x4
00102F2E  C9                leave
00102F2F  C3                ret
00102F30  0000              add [eax],al
00102F32  0000              add [eax],al
00102F34  0000              add [eax],al
00102F36  0000              add [eax],al
00102F38  0000              add [eax],al
00102F3A  0000              add [eax],al
00102F3C  0000              add [eax],al
00102F3E  0000              add [eax],al
00102F40  0000              add [eax],al
00102F42  0000              add [eax],al
00102F44  0000              add [eax],al
00102F46  0000              add [eax],al
00102F48  0000              add [eax],al
00102F4A  0000              add [eax],al
00102F4C  0000              add [eax],al
00102F4E  0000              add [eax],al
00102F50  0000              add [eax],al
00102F52  0000              add [eax],al
00102F54  0000              add [eax],al
00102F56  0000              add [eax],al
00102F58  0000              add [eax],al
00102F5A  0000              add [eax],al
00102F5C  0000              add [eax],al
00102F5E  0000              add [eax],al
00102F60  0000              add [eax],al
00102F62  0000              add [eax],al
00102F64  0000              add [eax],al
00102F66  0000              add [eax],al
00102F68  0000              add [eax],al
00102F6A  0000              add [eax],al
00102F6C  0000              add [eax],al
00102F6E  0000              add [eax],al
00102F70  0000              add [eax],al
00102F72  0000              add [eax],al
00102F74  0000              add [eax],al
00102F76  0000              add [eax],al
00102F78  0000              add [eax],al
00102F7A  0000              add [eax],al
00102F7C  0000              add [eax],al
00102F7E  0000              add [eax],al
00102F80  214334            and [ebx+0x34],eax
00102F83  123412            adc dh,[edx+edx]
00102F86  214394            and [ebx-0x6c],eax
00102F89  2F                das
00102F8A  1000              adc [eax],al
00102F8C  627573            bound esi,[ebp+0x73]
00102F8F  5F                pop edi
00102F90  7073              jo 0x103005
00102F92  3200              xor al,[eax]
00102F94  55                push ebp
00102F95  89E5              mov ebp,esp
00102F97  81EC00000000      sub esp,0x0
00102F9D  B83C411000        mov eax,0x10413c
00102FA2  50                push eax
00102FA3  E8D5D3FFFF        call 0x10037d
00102FA8  83C404            add esp,byte +0x4
00102FAB  B800000000        mov eax,0x0
00102FB0  890590D81000      mov [dword 0x10d890],eax
00102FB6  B800000000        mov eax,0x0
00102FBB  890594D81000      mov [dword 0x10d894],eax
00102FC1  B8802E1000        mov eax,0x102e80
00102FC6  50                push eax
00102FC7  B801000000        mov eax,0x1
00102FCC  50                push eax
00102FCD  E8A9FBFFFF        call 0x102b7b
00102FD2  83C408            add esp,byte +0x8
00102FD5  B8D82E1000        mov eax,0x102ed8
00102FDA  50                push eax
00102FDB  B80C000000        mov eax,0xc
00102FE0  50                push eax
00102FE1  E895FBFFFF        call 0x102b7b
00102FE6  83C408            add esp,byte +0x8
00102FE9  B852411000        mov eax,0x104152
00102FEE  50                push eax
00102FEF  E889D3FFFF        call 0x10037d
00102FF4  83C404            add esp,byte +0x4
00102FF7  B860000000        mov eax,0x60
00102FFC  50                push eax
00102FFD  E893020000        call 0x103295
00103002  83C404            add esp,byte +0x4
00103005  B803000000        mov eax,0x3
0010300A  50                push eax
0010300B  E8BB020000        call 0x1032cb
00103010  83C404            add esp,byte +0x4
00103013  B854411000        mov eax,0x104154
00103018  50                push eax
00103019  E85FD3FFFF        call 0x10037d
0010301E  83C404            add esp,byte +0x4
00103021  B8AD000000        mov eax,0xad
00103026  50                push eax
00103027  E869020000        call 0x103295
0010302C  83C404            add esp,byte +0x4
0010302F  B8A7000000        mov eax,0xa7
00103034  50                push eax
00103035  E85B020000        call 0x103295
0010303A  83C404            add esp,byte +0x4
0010303D  B856411000        mov eax,0x104156
00103042  50                push eax
00103043  E835D3FFFF        call 0x10037d
00103048  83C404            add esp,byte +0x4
0010304B  E857010000        call 0x1031a7
00103050  83E001            and eax,byte +0x1
00103053  83F800            cmp eax,byte +0x0
00103056  0F8410000000      jz near 0x10306c
0010305C  B860000000        mov eax,0x60
00103061  50                push eax
00103062  E8BED0FFFF        call 0x100125
00103067  83C404            add esp,byte +0x4
0010306A  EBDF              jmp short 0x10304b
0010306C  B858411000        mov eax,0x104158
00103071  50                push eax
00103072  E806D3FFFF        call 0x10037d
00103077  83C404            add esp,byte +0x4
0010307A  B8AE000000        mov eax,0xae
0010307F  50                push eax
00103080  E810020000        call 0x103295
00103085  83C404            add esp,byte +0x4
00103088  B8A8000000        mov eax,0xa8
0010308D  50                push eax
0010308E  E802020000        call 0x103295
00103093  83C404            add esp,byte +0x4
00103096  B85A411000        mov eax,0x10415a
0010309B  50                push eax
0010309C  E8DCD2FFFF        call 0x10037d
001030A1  83C404            add esp,byte +0x4
001030A4  B820000000        mov eax,0x20
001030A9  50                push eax
001030AA  E8E6010000        call 0x103295
001030AF  83C404            add esp,byte +0x4
001030B2  E8F0000000        call 0x1031a7
001030B7  83E001            and eax,byte +0x1
001030BA  83F800            cmp eax,byte +0x0
001030BD  0F8410000000      jz near 0x1030d3
001030C3  B860000000        mov eax,0x60
001030C8  50                push eax
001030C9  E857D0FFFF        call 0x100125
001030CE  83C404            add esp,byte +0x4
001030D1  EBDF              jmp short 0x1030b2
001030D3  B85C411000        mov eax,0x10415c
001030D8  50                push eax
001030D9  E89FD2FFFF        call 0x10037d
001030DE  83C404            add esp,byte +0x4
001030E1  B801000000        mov eax,0x1
001030E6  88051C501000      mov [dword 0x10501c],al
001030EC  B85E411000        mov eax,0x10415e
001030F1  50                push eax
001030F2  E886D2FFFF        call 0x10037d
001030F7  83C404            add esp,byte +0x4
001030FA  8B0520501000      mov eax,[dword 0x105020]
00103100  83F800            cmp eax,byte +0x0
00103103  0F8408000000      jz near 0x103111
00103109  8B0520501000      mov eax,[dword 0x105020]
0010310F  FFD0              call eax
00103111  8B0524501000      mov eax,[dword 0x105024]
00103117  83F800            cmp eax,byte +0x0
0010311A  0F8408000000      jz near 0x103128
00103120  8B0524501000      mov eax,[dword 0x105024]
00103126  FFD0              call eax
00103128  B801000000        mov eax,0x1
0010312D  C9                leave
0010312E  C3                ret
0010312F  55                push ebp
00103130  89E5              mov ebp,esp
00103132  81EC00000000      sub esp,0x0
00103138  0FB64508          movzx eax,byte [ebp+0x8]
0010313C  83F802            cmp eax,byte +0x2
0010313F  0F8E05000000      jng near 0x10314a
00103145  E95B000000        jmp 0x1031a5
0010314A  9C                pushf
0010314B  E83FD0FFFF        call 0x10018f
00103150  0FB64508          movzx eax,byte [ebp+0x8]
00103154  C1E002            shl eax,byte 0x2
00103157  B990D81000        mov ecx,0x10d890
0010315C  01C1              add ecx,eax
0010315E  8B450C            mov eax,[ebp+0xc]
00103161  8901              mov [ecx],eax
00103163  0FB64508          movzx eax,byte [ebp+0x8]
00103167  83F800            cmp eax,byte +0x0
0010316A  0F8509000000      jnz near 0x103179
00103170  8B4510            mov eax,[ebp+0x10]
00103173  890520501000      mov [dword 0x105020],eax
00103179  0FB64508          movzx eax,byte [ebp+0x8]
0010317D  83F801            cmp eax,byte +0x1
00103180  0F8509000000      jnz near 0x10318f
00103186  8B4510            mov eax,[ebp+0x10]
00103189  890524501000      mov [dword 0x105024],eax
0010318F  9D                popf
00103190  0FBE051C501000    movsx eax,byte [dword 0x10501c]
00103197  83F800            cmp eax,byte +0x0
0010319A  0F8405000000      jz near 0x1031a5
001031A0  8B4510            mov eax,[ebp+0x10]
001031A3  FFD0              call eax
001031A5  C9                leave
001031A6  C3                ret
001031A7  55                push ebp
001031A8  89E5              mov ebp,esp
001031AA  81EC00000000      sub esp,0x0
001031B0  B864000000        mov eax,0x64
001031B5  50                push eax
001031B6  E86ACFFFFF        call 0x100125
001031BB  83C404            add esp,byte +0x4
001031BE  0FB6C0            movzx eax,al
001031C1  C9                leave
001031C2  C3                ret
001031C3  55                push ebp
001031C4  89E5              mov ebp,esp
001031C6  81EC04000000      sub esp,0x4
001031CC  B864000000        mov eax,0x64
001031D1  8945FC            mov [ebp-0x4],eax
001031D4  8B45FC            mov eax,[ebp-0x4]
001031D7  89C1              mov ecx,eax
001031D9  48                dec eax
001031DA  8945FC            mov [ebp-0x4],eax
001031DD  83F900            cmp ecx,byte +0x0
001031E0  0F8420000000      jz near 0x103206
001031E6  0FBE0518501000    movsx eax,byte [dword 0x105018]
001031ED  83F800            cmp eax,byte +0x0
001031F0  0F8510000000      jnz near 0x103206
001031F6  B801000000        mov eax,0x1
001031FB  50                push eax
001031FC  E8F8FBFFFF        call 0x102df9
00103201  83C404            add esp,byte +0x4
00103204  EBCE              jmp short 0x1031d4
00103206  B800000000        mov eax,0x0
0010320B  880518501000      mov [dword 0x105018],al
00103211  0FB60519501000    movzx eax,byte [dword 0x105019]
00103218  C9                leave
00103219  C3                ret
0010321A  55                push ebp
0010321B  89E5              mov ebp,esp
0010321D  81EC04000000      sub esp,0x4
00103223  B864000000        mov eax,0x64
00103228  8945FC            mov [ebp-0x4],eax
0010322B  8B45FC            mov eax,[ebp-0x4]
0010322E  89C1              mov ecx,eax
00103230  48                dec eax
00103231  8945FC            mov [ebp-0x4],eax
00103234  83F900            cmp ecx,byte +0x0
00103237  0F8420000000      jz near 0x10325d
0010323D  0FBE051A501000    movsx eax,byte [dword 0x10501a]
00103244  83F800            cmp eax,byte +0x0
00103247  0F8510000000      jnz near 0x10325d
0010324D  B801000000        mov eax,0x1
00103252  50                push eax
00103253  E8A1FBFFFF        call 0x102df9
00103258  83C404            add esp,byte +0x4
0010325B  EBCE              jmp short 0x10322b
0010325D  B800000000        mov eax,0x0
00103262  88051A501000      mov [dword 0x10501a],al
00103268  0FB6051A501000    movzx eax,byte [dword 0x10501a]
0010326F  C9                leave
00103270  C3                ret
00103271  55                push ebp
00103272  89E5              mov ebp,esp
00103274  81EC00000000      sub esp,0x0
0010327A  0FBE0518501000    movsx eax,byte [dword 0x105018]
00103281  C9                leave
00103282  C3                ret
00103283  55                push ebp
00103284  89E5              mov ebp,esp
00103286  81EC00000000      sub esp,0x0
0010328C  0FBE051A501000    movsx eax,byte [dword 0x10501a]
00103293  C9                leave
00103294  C3                ret
00103295  55                push ebp
00103296  89E5              mov ebp,esp
00103298  81EC00000000      sub esp,0x0
0010329E  E804FFFFFF        call 0x1031a7
001032A3  83E002            and eax,byte +0x2
001032A6  83F800            cmp eax,byte +0x0
001032A9  0F8505000000      jnz near 0x1032b4
001032AF  E902000000        jmp 0x1032b6
001032B4  EBE8              jmp short 0x10329e
001032B6  0FB64508          movzx eax,byte [ebp+0x8]
001032BA  50                push eax
001032BB  B864000000        mov eax,0x64
001032C0  50                push eax
001032C1  E83ACEFFFF        call 0x100100
001032C6  83C408            add esp,byte +0x8
001032C9  C9                leave
001032CA  C3                ret
001032CB  55                push ebp
001032CC  89E5              mov ebp,esp
001032CE  81EC00000000      sub esp,0x0
001032D4  E8CEFEFFFF        call 0x1031a7
001032D9  83E002            and eax,byte +0x2
001032DC  83F800            cmp eax,byte +0x0
001032DF  0F8505000000      jnz near 0x1032ea
001032E5  E902000000        jmp 0x1032ec
001032EA  EBE8              jmp short 0x1032d4
001032EC  0FB64508          movzx eax,byte [ebp+0x8]
001032F0  50                push eax
001032F1  B860000000        mov eax,0x60
001032F6  50                push eax
001032F7  E804CEFFFF        call 0x100100
001032FC  83C408            add esp,byte +0x8
001032FF  C9                leave
00103300  C3                ret
00103301  55                push ebp
00103302  89E5              mov ebp,esp
00103304  81EC00000000      sub esp,0x0
0010330A  0FBE0528501000    movsx eax,byte [dword 0x105028]
00103311  83F800            cmp eax,byte +0x0
00103314  0F8410000000      jz near 0x10332a
0010331A  B801000000        mov eax,0x1
0010331F  50                push eax
00103320  E8D4FAFFFF        call 0x102df9
00103325  83C404            add esp,byte +0x4
00103328  EBE0              jmp short 0x10330a
0010332A  9C                pushf
0010332B  E85FCEFFFF        call 0x10018f
00103330  0FBE0528501000    movsx eax,byte [dword 0x105028]
00103337  83F800            cmp eax,byte +0x0
0010333A  0F8511000000      jnz near 0x103351
00103340  B801000000        mov eax,0x1
00103345  880528501000      mov [dword 0x105028],al
0010334B  9D                popf
0010334C  E903000000        jmp 0x103354
00103351  9D                popf
00103352  EBB6              jmp short 0x10330a
00103354  C9                leave
00103355  C3                ret
00103356  55                push ebp
00103357  89E5              mov ebp,esp
00103359  81EC00000000      sub esp,0x0
0010335F  B800000000        mov eax,0x0
00103364  880528501000      mov [dword 0x105028],al
0010336A  C9                leave
0010336B  C3                ret
0010336C  0000              add [eax],al
0010336E  0000              add [eax],al
00103370  0000              add [eax],al
00103372  0000              add [eax],al
00103374  0000              add [eax],al
00103376  0000              add [eax],al
00103378  0000              add [eax],al
0010337A  0000              add [eax],al
0010337C  0000              add [eax],al
0010337E  0000              add [eax],al
00103380  55                push ebp
00103381  89E5              mov ebp,esp
00103383  81EC00000000      sub esp,0x0
00103389  8B4508            mov eax,[ebp+0x8]
0010338C  83F802            cmp eax,byte +0x2
0010338F  0F8D05000000      jnl near 0x10339a
00103395  E90A000000        jmp 0x1033a4
0010339A  B874030000        mov eax,0x374
0010339F  E905000000        jmp 0x1033a9
001033A4  B8F4030000        mov eax,0x3f4
001033A9  8B4D0C            mov ecx,[ebp+0xc]
001033AC  01C8              add eax,ecx
001033AE  0FB7C0            movzx eax,ax
001033B1  0FB64D10          movzx ecx,byte [ebp+0x10]
001033B5  51                push ecx
001033B6  50                push eax
001033B7  E844CDFFFF        call 0x100100
001033BC  83C408            add esp,byte +0x8
001033BF  C9                leave
001033C0  C3                ret
001033C1  55                push ebp
001033C2  89E5              mov ebp,esp
001033C4  81EC00000000      sub esp,0x0
001033CA  8B4508            mov eax,[ebp+0x8]
001033CD  83F802            cmp eax,byte +0x2
001033D0  0F8D05000000      jnl near 0x1033db
001033D6  E90A000000        jmp 0x1033e5
001033DB  B870010000        mov eax,0x170
001033E0  E905000000        jmp 0x1033ea
001033E5  B8F0010000        mov eax,0x1f0
001033EA  8B4D0C            mov ecx,[ebp+0xc]
001033ED  01C8              add eax,ecx
001033EF  0FB7C0            movzx eax,ax
001033F2  0FB64D10          movzx ecx,byte [ebp+0x10]
001033F6  51                push ecx
001033F7  50                push eax
001033F8  E80FCDFFFF        call 0x10010c
001033FD  83C408            add esp,byte +0x8
00103400  C9                leave
00103401  C3                ret
00103402  55                push ebp
00103403  89E5              mov ebp,esp
00103405  81EC00000000      sub esp,0x0
0010340B  8B4508            mov eax,[ebp+0x8]
0010340E  83F802            cmp eax,byte +0x2
00103411  0F8D05000000      jnl near 0x10341c
00103417  E90A000000        jmp 0x103426
0010341C  B870010000        mov eax,0x170
00103421  E905000000        jmp 0x10342b
00103426  B8F0010000        mov eax,0x1f0
0010342B  8B4D0C            mov ecx,[ebp+0xc]
0010342E  01C8              add eax,ecx
00103430  0FB7C0            movzx eax,ax
00103433  50                push eax
00103434  E8F4CCFFFF        call 0x10012d
00103439  83C404            add esp,byte +0x4
0010343C  0FB7C0            movzx eax,ax
0010343F  C9                leave
00103440  C3                ret
00103441  0000              add [eax],al
00103443  0000              add [eax],al
00103445  0000              add [eax],al
00103447  0000              add [eax],al
00103449  0000              add [eax],al
0010344B  0000              add [eax],al
0010344D  0000              add [eax],al
0010344F  0000              add [eax],al
00103451  0000              add [eax],al
00103453  0000              add [eax],al
00103455  0000              add [eax],al
00103457  0000              add [eax],al
00103459  0000              add [eax],al
0010345B  0000              add [eax],al
0010345D  0000              add [eax],al
0010345F  0000              add [eax],al
00103461  0000              add [eax],al
00103463  0000              add [eax],al
00103465  0000              add [eax],al
00103467  0000              add [eax],al
00103469  0000              add [eax],al
0010346B  0000              add [eax],al
0010346D  0000              add [eax],al
0010346F  0000              add [eax],al
00103471  0000              add [eax],al
00103473  0000              add [eax],al
00103475  0000              add [eax],al
00103477  0000              add [eax],al
00103479  0000              add [eax],al
0010347B  0000              add [eax],al
0010347D  0000              add [eax],al
0010347F  0021              add [ecx],ah
00103481  43                inc ebx
00103482  3412              xor al,0x12
00103484  3412              xor al,0x12
00103486  214395            and [ebx-0x6b],eax
00103489  3410              xor al,0x10
0010348B  00646973          add [ecx+ebp*2+0x73],ah
0010348F  6B5F6964          imul ebx,[edi+0x69],byte +0x64
00103493  65005589          add [gs:ebp-0x77],dl
00103497  E581              in eax,0x81
00103499  EC                in al,dx
0010349A  0000              add [eax],al
0010349C  0000              add [eax],al
0010349E  B864411000        mov eax,0x104164
001034A3  50                push eax
001034A4  E8D4CEFFFF        call 0x10037d
001034A9  83C404            add esp,byte +0x4
001034AC  B880411000        mov eax,0x104180
001034B1  50                push eax
001034B2  E8C6CEFFFF        call 0x10037d
001034B7  83C404            add esp,byte +0x4
001034BA  B801000000        mov eax,0x1
001034BF  C9                leave
001034C0  C3                ret
001034C1  0000              add [eax],al
001034C3  0000              add [eax],al
001034C5  0000              add [eax],al
001034C7  0000              add [eax],al
001034C9  0000              add [eax],al
001034CB  0000              add [eax],al
001034CD  0000              add [eax],al
001034CF  0000              add [eax],al
001034D1  0000              add [eax],al
001034D3  0000              add [eax],al
001034D5  0000              add [eax],al
001034D7  0000              add [eax],al
001034D9  0000              add [eax],al
001034DB  0000              add [eax],al
001034DD  0000              add [eax],al
001034DF  0000              add [eax],al
001034E1  0000              add [eax],al
001034E3  0000              add [eax],al
001034E5  0000              add [eax],al
001034E7  0000              add [eax],al
001034E9  0000              add [eax],al
001034EB  0000              add [eax],al
001034ED  0000              add [eax],al
001034EF  0000              add [eax],al
001034F1  0000              add [eax],al
001034F3  0000              add [eax],al
001034F5  0000              add [eax],al
001034F7  0000              add [eax],al
001034F9  0000              add [eax],al
001034FB  0000              add [eax],al
001034FD  0000              add [eax],al
001034FF  005589            add [ebp-0x77],dl
00103502  E581              in eax,0x81
00103504  EC                in al,dx
00103505  0000              add [eax],al
00103507  0000              add [eax],al
00103509  B898D81000        mov eax,0x10d898
0010350E  C9                leave
0010350F  C3                ret
00103510  0000              add [eax],al
00103512  0000              add [eax],al
00103514  0000              add [eax],al
00103516  0000              add [eax],al
00103518  0000              add [eax],al
0010351A  0000              add [eax],al
0010351C  0000              add [eax],al
0010351E  0000              add [eax],al
00103520  0000              add [eax],al
00103522  0000              add [eax],al
00103524  0000              add [eax],al
00103526  0000              add [eax],al
00103528  0000              add [eax],al
0010352A  0000              add [eax],al
0010352C  0000              add [eax],al
0010352E  0000              add [eax],al
00103530  0000              add [eax],al
00103532  0000              add [eax],al
00103534  0000              add [eax],al
00103536  0000              add [eax],al
00103538  0000              add [eax],al
0010353A  0000              add [eax],al
0010353C  0000              add [eax],al
0010353E  0000              add [eax],al
00103540  0000              add [eax],al
00103542  0000              add [eax],al
00103544  0000              add [eax],al
00103546  0000              add [eax],al
00103548  0000              add [eax],al
0010354A  0000              add [eax],al
0010354C  0000              add [eax],al
0010354E  0000              add [eax],al
00103550  0000              add [eax],al
00103552  0000              add [eax],al
00103554  0000              add [eax],al
00103556  0000              add [eax],al
00103558  0000              add [eax],al
0010355A  0000              add [eax],al
0010355C  0000              add [eax],al
0010355E  0000              add [eax],al
00103560  0000              add [eax],al
00103562  0000              add [eax],al
00103564  0000              add [eax],al
00103566  0000              add [eax],al
00103568  0000              add [eax],al
0010356A  0000              add [eax],al
0010356C  0000              add [eax],al
0010356E  0000              add [eax],al
00103570  0000              add [eax],al
00103572  0000              add [eax],al
00103574  0000              add [eax],al
00103576  0000              add [eax],al
00103578  0000              add [eax],al
0010357A  0000              add [eax],al
0010357C  0000              add [eax],al
0010357E  0000              add [eax],al
00103580  214334            and [ebx+0x34],eax
00103583  123412            adc dh,[edx+edx]
00103586  21439B            and [ebx-0x65],eax
00103589  3510007669        xor eax,0x69760010
0010358E  64656F            gs outsd
00103591  5F                pop edi
00103592  7667              jna 0x1035fb
00103594  61                popa
00103595  5F                pop edi
00103596  6D                insd
00103597  6F                outsd
00103598  6E                outsb
00103599  6F                outsd
0010359A  005589            add [ebp-0x77],dl
0010359D  E581              in eax,0x81
0010359F  EC                in al,dx
001035A0  0000              add [eax],al
001035A2  0000              add [eax],al
001035A4  B814000000        mov eax,0x14
001035A9  50                push eax
001035AA  B800000000        mov eax,0x0
001035AF  50                push eax
001035B0  B898D81000        mov eax,0x10d898
001035B5  50                push eax
001035B6  E885060000        call 0x103c40
001035BB  83C40C            add esp,byte +0xc
001035BE  B880020000        mov eax,0x280
001035C3  890598D81000      mov [dword 0x10d898],eax
001035C9  B8E0010000        mov eax,0x1e0
001035CE  89059CD81000      mov [dword 0x10d89c],eax
001035D4  B850000000        mov eax,0x50
001035D9  8905A0D81000      mov [dword 0x10d8a0],eax
001035DF  B800960000        mov eax,0x9600
001035E4  8905A4D81000      mov [dword 0x10d8a4],eax
001035EA  B8ACD81000        mov eax,0x10d8ac
001035EF  8905A8D81000      mov [dword 0x10d8a8],eax
001035F5  B800351000        mov eax,0x103500
001035FA  890580D81000      mov [dword 0x10d880],eax
00103600  B801000000        mov eax,0x1
00103605  C9                leave
00103606  C3                ret
00103607  0000              add [eax],al
00103609  0000              add [eax],al
0010360B  0000              add [eax],al
0010360D  0000              add [eax],al
0010360F  0000              add [eax],al
00103611  0000              add [eax],al
00103613  0000              add [eax],al
00103615  0000              add [eax],al
00103617  0000              add [eax],al
00103619  0000              add [eax],al
0010361B  0000              add [eax],al
0010361D  0000              add [eax],al
0010361F  0000              add [eax],al
00103621  0000              add [eax],al
00103623  0000              add [eax],al
00103625  0000              add [eax],al
00103627  0000              add [eax],al
00103629  0000              add [eax],al
0010362B  0000              add [eax],al
0010362D  0000              add [eax],al
0010362F  0000              add [eax],al
00103631  0000              add [eax],al
00103633  0000              add [eax],al
00103635  0000              add [eax],al
00103637  0000              add [eax],al
00103639  0000              add [eax],al
0010363B  0000              add [eax],al
0010363D  0000              add [eax],al
0010363F  0000              add [eax],al
00103641  0000              add [eax],al
00103643  0000              add [eax],al
00103645  0000              add [eax],al
00103647  0000              add [eax],al
00103649  0000              add [eax],al
0010364B  0000              add [eax],al
0010364D  0000              add [eax],al
0010364F  0000              add [eax],al
00103651  0000              add [eax],al
00103653  0000              add [eax],al
00103655  0000              add [eax],al
00103657  0000              add [eax],al
00103659  0000              add [eax],al
0010365B  0000              add [eax],al
0010365D  0000              add [eax],al
0010365F  0000              add [eax],al
00103661  0000              add [eax],al
00103663  0000              add [eax],al
00103665  0000              add [eax],al
00103667  0000              add [eax],al
00103669  0000              add [eax],al
0010366B  0000              add [eax],al
0010366D  0000              add [eax],al
0010366F  0000              add [eax],al
00103671  0000              add [eax],al
00103673  0000              add [eax],al
00103675  0000              add [eax],al
00103677  0000              add [eax],al
00103679  0000              add [eax],al
0010367B  0000              add [eax],al
0010367D  0000              add [eax],al
0010367F  005589            add [ebp-0x77],dl
00103682  E581              in eax,0x81
00103684  EC                in al,dx
00103685  0C00              or al,0x0
00103687  0000              add [eax],al
00103689  0FBE052C501000    movsx eax,byte [dword 0x10502c]
00103690  83F800            cmp eax,byte +0x0
00103693  0F8405000000      jz near 0x10369e
00103699  E900020000        jmp 0x10389e
0010369E  E820FBFFFF        call 0x1031c3
001036A3  8845FF            mov [ebp-0x1],al
001036A6  B800000000        mov eax,0x0
001036AB  8845FE            mov [ebp-0x2],al
001036AE  B800000000        mov eax,0x0
001036B3  8845FD            mov [ebp-0x3],al
001036B6  B82E501000        mov eax,0x10502e
001036BB  8945F8            mov [ebp-0x8],eax
001036BE  0FB645FF          movzx eax,byte [ebp-0x1]
001036C2  81F8E0000000      cmp eax,0xe0
001036C8  0F8505000000      jnz near 0x1036d3
001036CE  E951000000        jmp 0x103724
001036D3  0FB645FF          movzx eax,byte [ebp-0x1]
001036D7  81F8E1000000      cmp eax,0xe1
001036DD  0F8505000000      jnz near 0x1036e8
001036E3  E93C000000        jmp 0x103724
001036E8  0FB645FF          movzx eax,byte [ebp-0x1]
001036EC  81E080000000      and eax,0x80
001036F2  83F800            cmp eax,byte +0x0
001036F5  0F8417000000      jz near 0x103712
001036FB  0FB645FF          movzx eax,byte [ebp-0x1]
001036FF  83E07F            and eax,byte +0x7f
00103702  8B4DF8            mov ecx,[ebp-0x8]
00103705  01C1              add ecx,eax
00103707  0FBE09            movsx ecx,byte [ecx]
0010370A  884DFD            mov [ebp-0x3],cl
0010370D  E912000000        jmp 0x103724
00103712  0FB645FF          movzx eax,byte [ebp-0x1]
00103716  83E07F            and eax,byte +0x7f
00103719  8B4DF8            mov ecx,[ebp-0x8]
0010371C  01C1              add ecx,eax
0010371E  0FBE09            movsx ecx,byte [ecx]
00103721  884DFE            mov [ebp-0x2],cl
00103724  E910000000        jmp 0x103739
00103729  B801000000        mov eax,0x1
0010372E  88052D501000      mov [dword 0x10502d],al
00103734  E921000000        jmp 0x10375a
00103739  0FB645FE          movzx eax,byte [ebp-0x2]
0010373D  81F8C4000000      cmp eax,0xc4
00103743  0F8F11000000      jg near 0x10375a
00103749  81F8C3000000      cmp eax,0xc3
0010374F  0F8DD4FFFFFF      jnl near 0x103729
00103755  E900000000        jmp 0x10375a
0010375A  E910000000        jmp 0x10376f
0010375F  B800000000        mov eax,0x0
00103764  88052D501000      mov [dword 0x10502d],al
0010376A  E921000000        jmp 0x103790
0010376F  0FB645FD          movzx eax,byte [ebp-0x3]
00103773  81F8C4000000      cmp eax,0xc4
00103779  0F8F11000000      jg near 0x103790
0010377F  81F8C3000000      cmp eax,0xc3
00103785  0F8DD4FFFFFF      jnl near 0x10375f
0010378B  E900000000        jmp 0x103790
00103790  0FB645FE          movzx eax,byte [ebp-0x2]
00103794  83F800            cmp eax,byte +0x0
00103797  0F847A000000      jz near 0x103817
0010379D  0FB645FE          movzx eax,byte [ebp-0x2]
001037A1  81F8C0000000      cmp eax,0xc0
001037A7  0F9DC0            setnl al
001037AA  0FB6C0            movzx eax,al
001037AD  0FB64DFE          movzx ecx,byte [ebp-0x2]
001037B1  83F920            cmp ecx,byte +0x20
001037B4  0F9CC1            setl cl
001037B7  0FB6C9            movzx ecx,cl
001037BA  09C8              or eax,ecx
001037BC  83F800            cmp eax,byte +0x0
001037BF  0F8405000000      jz near 0x1037ca
001037C5  E909000000        jmp 0x1037d3
001037CA  0FB645FE          movzx eax,byte [ebp-0x2]
001037CE  E905000000        jmp 0x1037d8
001037D3  B800000000        mov eax,0x0
001037D8  8945F4            mov [ebp-0xc],eax
001037DB  0FBE052D501000    movsx eax,byte [dword 0x10502d]
001037E2  83F800            cmp eax,byte +0x0
001037E5  0F8405000000      jz near 0x1037f0
001037EB  E90A000000        jmp 0x1037fa
001037F0  B8A8411000        mov eax,0x1041a8
001037F5  E905000000        jmp 0x1037ff
001037FA  B8A2411000        mov eax,0x1041a2
001037FF  50                push eax
00103800  8B45F4            mov eax,[ebp-0xc]
00103803  50                push eax
00103804  0FB645FE          movzx eax,byte [ebp-0x2]
00103808  50                push eax
00103809  B888411000        mov eax,0x104188
0010380E  50                push eax
0010380F  E869CBFFFF        call 0x10037d
00103814  83C410            add esp,byte +0x10
00103817  0FB645FD          movzx eax,byte [ebp-0x3]
0010381B  83F800            cmp eax,byte +0x0
0010381E  0F847A000000      jz near 0x10389e
00103824  0FB645FD          movzx eax,byte [ebp-0x3]
00103828  81F8C0000000      cmp eax,0xc0
0010382E  0F9DC0            setnl al
00103831  0FB6C0            movzx eax,al
00103834  0FB64DFD          movzx ecx,byte [ebp-0x3]
00103838  83F920            cmp ecx,byte +0x20
0010383B  0F9CC1            setl cl
0010383E  0FB6C9            movzx ecx,cl
00103841  09C8              or eax,ecx
00103843  83F800            cmp eax,byte +0x0
00103846  0F8405000000      jz near 0x103851
0010384C  E909000000        jmp 0x10385a
00103851  0FB645FD          movzx eax,byte [ebp-0x3]
00103855  E905000000        jmp 0x10385f
0010385A  B800000000        mov eax,0x0
0010385F  8945F4            mov [ebp-0xc],eax
00103862  0FBE052D501000    movsx eax,byte [dword 0x10502d]
00103869  83F800            cmp eax,byte +0x0
0010386C  0F8405000000      jz near 0x103877
00103872  E90A000000        jmp 0x103881
00103877  B8C9411000        mov eax,0x1041c9
0010387C  E905000000        jmp 0x103886
00103881  B8C3411000        mov eax,0x1041c3
00103886  50                push eax
00103887  8B45F4            mov eax,[ebp-0xc]
0010388A  50                push eax
0010388B  0FB645FD          movzx eax,byte [ebp-0x3]
0010388F  50                push eax
00103890  B8A9411000        mov eax,0x1041a9
00103895  50                push eax
00103896  E8E2CAFFFF        call 0x10037d
0010389B  83C410            add esp,byte +0x10
0010389E  C9                leave
0010389F  C3                ret
001038A0  55                push ebp
001038A1  89E5              mov ebp,esp
001038A3  81EC04000000      sub esp,0x4
001038A9  E853FAFFFF        call 0x103301
001038AE  B8AE000000        mov eax,0xae
001038B3  50                push eax
001038B4  E8DCF9FFFF        call 0x103295
001038B9  83C404            add esp,byte +0x4
001038BC  0FBE4508          movsx eax,byte [ebp+0x8]
001038C0  83F800            cmp eax,byte +0x0
001038C3  0F8405000000      jz near 0x1038ce
001038C9  E905000000        jmp 0x1038d3
001038CE  E907000000        jmp 0x1038da
001038D3  B801000000        mov eax,0x1
001038D8  EB05              jmp short 0x1038df
001038DA  B800000000        mov eax,0x0
001038DF  8945FC            mov [ebp-0x4],eax
001038E2  0FBE450C          movsx eax,byte [ebp+0xc]
001038E6  83F800            cmp eax,byte +0x0
001038E9  0F8405000000      jz near 0x1038f4
001038EF  E90A000000        jmp 0x1038fe
001038F4  B800000000        mov eax,0x0
001038F9  E905000000        jmp 0x103903
001038FE  B802000000        mov eax,0x2
00103903  8B4DFC            mov ecx,[ebp-0x4]
00103906  09C1              or ecx,eax
00103908  894DFC            mov [ebp-0x4],ecx
0010390B  0FBE4510          movsx eax,byte [ebp+0x10]
0010390F  83F800            cmp eax,byte +0x0
00103912  0F8405000000      jz near 0x10391d
00103918  E90A000000        jmp 0x103927
0010391D  B800000000        mov eax,0x0
00103922  E905000000        jmp 0x10392c
00103927  B804000000        mov eax,0x4
0010392C  8B4DFC            mov ecx,[ebp-0x4]
0010392F  09C1              or ecx,eax
00103931  0FB6C9            movzx ecx,cl
00103934  51                push ecx
00103935  E891F9FFFF        call 0x1032cb
0010393A  83C404            add esp,byte +0x4
0010393D  E814FAFFFF        call 0x103356
00103942  C9                leave
00103943  C3                ret
00103944  55                push ebp
00103945  89E5              mov ebp,esp
00103947  81EC08000000      sub esp,0x8
0010394D  B8C8000000        mov eax,0xc8
00103952  8945FC            mov [ebp-0x4],eax
00103955  E817F9FFFF        call 0x103271
0010395A  0FB6C0            movzx eax,al
0010395D  83F800            cmp eax,byte +0x0
00103960  0F8522000000      jnz near 0x103988
00103966  8B45FC            mov eax,[ebp-0x4]
00103969  89C1              mov ecx,eax
0010396B  48                dec eax
0010396C  8945FC            mov [ebp-0x4],eax
0010396F  83F900            cmp ecx,byte +0x0
00103972  0F8410000000      jz near 0x103988
00103978  B801000000        mov eax,0x1
0010397D  50                push eax
0010397E  E876F4FFFF        call 0x102df9
00103983  83C404            add esp,byte +0x4
00103986  EBCD              jmp short 0x103955
00103988  E8E4F8FFFF        call 0x103271
0010398D  0FB6C0            movzx eax,al
00103990  83F800            cmp eax,byte +0x0
00103993  0F841A000000      jz near 0x1039b3
00103999  8B4508            mov eax,[ebp+0x8]
0010399C  8945F8            mov [ebp-0x8],eax
0010399F  E81FF8FFFF        call 0x1031c3
001039A4  8B4DF8            mov ecx,[ebp-0x8]
001039A7  8801              mov [ecx],al
001039A9  B801000000        mov eax,0x1
001039AE  E905000000        jmp 0x1039b8
001039B3  B800000000        mov eax,0x0
001039B8  C9                leave
001039B9  C3                ret
001039BA  55                push ebp
001039BB  89E5              mov ebp,esp
001039BD  81EC08000000      sub esp,0x8
001039C3  B8CA411000        mov eax,0x1041ca
001039C8  50                push eax
001039C9  E8AFC9FFFF        call 0x10037d
001039CE  83C404            add esp,byte +0x4
001039D1  B800000000        mov eax,0x0
001039D6  50                push eax
001039D7  B800000000        mov eax,0x0
001039DC  50                push eax
001039DD  B800000000        mov eax,0x0
001039E2  50                push eax
001039E3  E8B8FEFFFF        call 0x1038a0
001039E8  83C40C            add esp,byte +0xc
001039EB  E811F9FFFF        call 0x103301
001039F0  E87CF8FFFF        call 0x103271
001039F5  0FB6C0            movzx eax,al
001039F8  83F800            cmp eax,byte +0x0
001039FB  0F8407000000      jz near 0x103a08
00103A01  E8BDF7FFFF        call 0x1031c3
00103A06  EBE8              jmp short 0x1039f0
00103A08  B8F0000000        mov eax,0xf0
00103A0D  50                push eax
00103A0E  E8B8F8FFFF        call 0x1032cb
00103A13  83C404            add esp,byte +0x4
00103A16  B801000000        mov eax,0x1
00103A1B  50                push eax
00103A1C  E8AAF8FFFF        call 0x1032cb
00103A21  83C404            add esp,byte +0x4
00103A24  E848F8FFFF        call 0x103271
00103A29  0FB6C0            movzx eax,al
00103A2C  83F800            cmp eax,byte +0x0
00103A2F  0F8407000000      jz near 0x103a3c
00103A35  E889F7FFFF        call 0x1031c3
00103A3A  EBE8              jmp short 0x103a24
00103A3C  B8F4000000        mov eax,0xf4
00103A41  50                push eax
00103A42  E884F8FFFF        call 0x1032cb
00103A47  83C404            add esp,byte +0x4
00103A4A  B80A000000        mov eax,0xa
00103A4F  50                push eax
00103A50  E8D1F3FFFF        call 0x102e26
00103A55  83C404            add esp,byte +0x4
00103A58  E866F7FFFF        call 0x1031c3
00103A5D  B80A000000        mov eax,0xa
00103A62  50                push eax
00103A63  E8BEF3FFFF        call 0x102e26
00103A68  83C404            add esp,byte +0x4
00103A6B  E801F8FFFF        call 0x103271
00103A70  0FB6C0            movzx eax,al
00103A73  83F800            cmp eax,byte +0x0
00103A76  0F8415000000      jz near 0x103a91
00103A7C  E842F7FFFF        call 0x1031c3
00103A81  B80A000000        mov eax,0xa
00103A86  50                push eax
00103A87  E89AF3FFFF        call 0x102e26
00103A8C  83C404            add esp,byte +0x4
00103A8F  EBDA              jmp short 0x103a6b
00103A91  E8C0F8FFFF        call 0x103356
00103A96  B800000000        mov eax,0x0
00103A9B  88052C501000      mov [dword 0x10502c],al
00103AA1  B8E5411000        mov eax,0x1041e5
00103AA6  50                push eax
00103AA7  E8D1C8FFFF        call 0x10037d
00103AAC  83C404            add esp,byte +0x4
00103AAF  C9                leave
00103AB0  C3                ret
00103AB1  0000              add [eax],al
00103AB3  0000              add [eax],al
00103AB5  0000              add [eax],al
00103AB7  0000              add [eax],al
00103AB9  0000              add [eax],al
00103ABB  0000              add [eax],al
00103ABD  0000              add [eax],al
00103ABF  0000              add [eax],al
00103AC1  0000              add [eax],al
00103AC3  0000              add [eax],al
00103AC5  0000              add [eax],al
00103AC7  0000              add [eax],al
00103AC9  0000              add [eax],al
00103ACB  0000              add [eax],al
00103ACD  0000              add [eax],al
00103ACF  0000              add [eax],al
00103AD1  0000              add [eax],al
00103AD3  0000              add [eax],al
00103AD5  0000              add [eax],al
00103AD7  0000              add [eax],al
00103AD9  0000              add [eax],al
00103ADB  0000              add [eax],al
00103ADD  0000              add [eax],al
00103ADF  0000              add [eax],al
00103AE1  0000              add [eax],al
00103AE3  0000              add [eax],al
00103AE5  0000              add [eax],al
00103AE7  0000              add [eax],al
00103AE9  0000              add [eax],al
00103AEB  0000              add [eax],al
00103AED  0000              add [eax],al
00103AEF  0000              add [eax],al
00103AF1  0000              add [eax],al
00103AF3  0000              add [eax],al
00103AF5  0000              add [eax],al
00103AF7  0000              add [eax],al
00103AF9  0000              add [eax],al
00103AFB  0000              add [eax],al
00103AFD  0000              add [eax],al
00103AFF  0021              add [ecx],ah
00103B01  43                inc ebx
00103B02  3412              xor al,0x12
00103B04  3412              xor al,0x12
00103B06  214319            and [ebx+0x19],eax
00103B09  3B10              cmp edx,[eax]
00103B0B  006B65            add [ebx+0x65],ch
00103B0E  7962              jns 0x103b72
00103B10  6F                outsd
00103B11  61                popa
00103B12  7264              jc 0x103b78
00103B14  5F                pop edi
00103B15  7073              jo 0x103b8a
00103B17  3200              xor al,[eax]
00103B19  55                push ebp
00103B1A  89E5              mov ebp,esp
00103B1C  81EC00000000      sub esp,0x0
00103B22  B8BA391000        mov eax,0x1039ba
00103B27  50                push eax
00103B28  B880361000        mov eax,0x103680
00103B2D  50                push eax
00103B2E  B800000000        mov eax,0x0
00103B33  50                push eax
00103B34  E8F6F5FFFF        call 0x10312f
00103B39  83C40C            add esp,byte +0xc
00103B3C  B801000000        mov eax,0x1
00103B41  C9                leave
00103B42  C3                ret
00103B43  0000              add [eax],al
00103B45  0000              add [eax],al
00103B47  0000              add [eax],al
00103B49  0000              add [eax],al
00103B4B  0000              add [eax],al
00103B4D  0000              add [eax],al
00103B4F  0000              add [eax],al
00103B51  0000              add [eax],al
00103B53  0000              add [eax],al
00103B55  0000              add [eax],al
00103B57  0000              add [eax],al
00103B59  0000              add [eax],al
00103B5B  0000              add [eax],al
00103B5D  0000              add [eax],al
00103B5F  0000              add [eax],al
00103B61  0000              add [eax],al
00103B63  0000              add [eax],al
00103B65  0000              add [eax],al
00103B67  0000              add [eax],al
00103B69  0000              add [eax],al
00103B6B  0000              add [eax],al
00103B6D  0000              add [eax],al
00103B6F  0000              add [eax],al
00103B71  0000              add [eax],al
00103B73  0000              add [eax],al
00103B75  0000              add [eax],al
00103B77  0000              add [eax],al
00103B79  0000              add [eax],al
00103B7B  0000              add [eax],al
00103B7D  0000              add [eax],al
00103B7F  005589            add [ebp-0x77],dl
00103B82  E581              in eax,0x81
00103B84  EC                in al,dx
00103B85  0000              add [eax],al
00103B87  0000              add [eax],al
00103B89  C9                leave
00103B8A  C3                ret
00103B8B  55                push ebp
00103B8C  89E5              mov ebp,esp
00103B8E  81EC00000000      sub esp,0x0
00103B94  C9                leave
00103B95  C3                ret
00103B96  0000              add [eax],al
00103B98  0000              add [eax],al
00103B9A  0000              add [eax],al
00103B9C  0000              add [eax],al
00103B9E  0000              add [eax],al
00103BA0  0000              add [eax],al
00103BA2  0000              add [eax],al
00103BA4  0000              add [eax],al
00103BA6  0000              add [eax],al
00103BA8  0000              add [eax],al
00103BAA  0000              add [eax],al
00103BAC  0000              add [eax],al
00103BAE  0000              add [eax],al
00103BB0  0000              add [eax],al
00103BB2  0000              add [eax],al
00103BB4  0000              add [eax],al
00103BB6  0000              add [eax],al
00103BB8  0000              add [eax],al
00103BBA  0000              add [eax],al
00103BBC  0000              add [eax],al
00103BBE  0000              add [eax],al
00103BC0  0000              add [eax],al
00103BC2  0000              add [eax],al
00103BC4  0000              add [eax],al
00103BC6  0000              add [eax],al
00103BC8  0000              add [eax],al
00103BCA  0000              add [eax],al
00103BCC  0000              add [eax],al
00103BCE  0000              add [eax],al
00103BD0  0000              add [eax],al
00103BD2  0000              add [eax],al
00103BD4  0000              add [eax],al
00103BD6  0000              add [eax],al
00103BD8  0000              add [eax],al
00103BDA  0000              add [eax],al
00103BDC  0000              add [eax],al
00103BDE  0000              add [eax],al
00103BE0  0000              add [eax],al
00103BE2  0000              add [eax],al
00103BE4  0000              add [eax],al
00103BE6  0000              add [eax],al
00103BE8  0000              add [eax],al
00103BEA  0000              add [eax],al
00103BEC  0000              add [eax],al
00103BEE  0000              add [eax],al
00103BF0  0000              add [eax],al
00103BF2  0000              add [eax],al
00103BF4  0000              add [eax],al
00103BF6  0000              add [eax],al
00103BF8  0000              add [eax],al
00103BFA  0000              add [eax],al
00103BFC  0000              add [eax],al
00103BFE  0000              add [eax],al
00103C00  214334            and [ebx+0x34],eax
00103C03  123412            adc dh,[edx+edx]
00103C06  214316            and [ebx+0x16],eax
00103C09  3C10              cmp al,0x10
00103C0B  006D6F            add [ebp+0x6f],ch
00103C0E  7573              jnz 0x103c83
00103C10  655F              gs pop edi
00103C12  7073              jo 0x103c87
00103C14  3200              xor al,[eax]
00103C16  55                push ebp
00103C17  89E5              mov ebp,esp
00103C19  81EC00000000      sub esp,0x0
00103C1F  B88B3B1000        mov eax,0x103b8b
00103C24  50                push eax
00103C25  B8803B1000        mov eax,0x103b80
00103C2A  50                push eax
00103C2B  B801000000        mov eax,0x1
00103C30  50                push eax
00103C31  E8F9F4FFFF        call 0x10312f
00103C36  83C40C            add esp,byte +0xc
00103C39  B801000000        mov eax,0x1
00103C3E  C9                leave
00103C3F  C3                ret
00103C40  55                push ebp
00103C41  89E5              mov ebp,esp
00103C43  81EC04000000      sub esp,0x4
00103C49  8B4508            mov eax,[ebp+0x8]
00103C4C  8945FC            mov [ebp-0x4],eax
00103C4F  8B4510            mov eax,[ebp+0x10]
00103C52  89C1              mov ecx,eax
00103C54  48                dec eax
00103C55  894510            mov [ebp+0x10],eax
00103C58  83F900            cmp ecx,byte +0x0
00103C5B  0F8416000000      jz near 0x103c77
00103C61  8B45FC            mov eax,[ebp-0x4]
00103C64  89C1              mov ecx,eax
00103C66  40                inc eax
00103C67  8945FC            mov [ebp-0x4],eax
00103C6A  8B450C            mov eax,[ebp+0xc]
00103C6D  81E0FF000000      and eax,0xff
00103C73  8801              mov [ecx],al
00103C75  EBD8              jmp short 0x103c4f
00103C77  8B4508            mov eax,[ebp+0x8]
00103C7A  C9                leave
00103C7B  C3                ret
00103C7C  55                push ebp
00103C7D  89E5              mov ebp,esp
00103C7F  81EC00000000      sub esp,0x0
00103C85  8B4508            mov eax,[ebp+0x8]
00103C88  8B4D0C            mov ecx,[ebp+0xc]
00103C8B  0FBE10            movsx edx,byte [eax]
00103C8E  0FBE01            movsx eax,byte [ecx]
00103C91  39C2              cmp edx,eax
00103C93  0F852D000000      jnz near 0x103cc6
00103C99  8B4508            mov eax,[ebp+0x8]
00103C9C  0FBE08            movsx ecx,byte [eax]
00103C9F  83F900            cmp ecx,byte +0x0
00103CA2  0F850A000000      jnz near 0x103cb2
00103CA8  B800000000        mov eax,0x0
00103CAD  E924000000        jmp 0x103cd6
00103CB2  8B4508            mov eax,[ebp+0x8]
00103CB5  89C1              mov ecx,eax
00103CB7  40                inc eax
00103CB8  894508            mov [ebp+0x8],eax
00103CBB  8B450C            mov eax,[ebp+0xc]
00103CBE  89C1              mov ecx,eax
00103CC0  40                inc eax
00103CC1  89450C            mov [ebp+0xc],eax
00103CC4  EBBF              jmp short 0x103c85
00103CC6  8B4508            mov eax,[ebp+0x8]
00103CC9  8B4D0C            mov ecx,[ebp+0xc]
00103CCC  0FB610            movzx edx,byte [eax]
00103CCF  0FB601            movzx eax,byte [ecx]
00103CD2  29C2              sub edx,eax
00103CD4  89D0              mov eax,edx
00103CD6  C9                leave
00103CD7  C3                ret
00103CD8  0000              add [eax],al
00103CDA  0000              add [eax],al
00103CDC  0000              add [eax],al
00103CDE  0000              add [eax],al
00103CE0  0000              add [eax],al
00103CE2  0000              add [eax],al
00103CE4  0000              add [eax],al
00103CE6  0000              add [eax],al
00103CE8  0000              add [eax],al
00103CEA  0000              add [eax],al
00103CEC  0000              add [eax],al
00103CEE  0000              add [eax],al
00103CF0  0000              add [eax],al
00103CF2  0000              add [eax],al
00103CF4  0000              add [eax],al
00103CF6  0000              add [eax],al
00103CF8  0000              add [eax],al
00103CFA  0000              add [eax],al
00103CFC  0000              add [eax],al
00103CFE  0000              add [eax],al
00103D00  0000              add [eax],al
00103D02  0000              add [eax],al
00103D04  0000              add [eax],al
00103D06  0000              add [eax],al
00103D08  0000              add [eax],al
00103D0A  0000              add [eax],al
00103D0C  0000              add [eax],al
00103D0E  0000              add [eax],al
00103D10  0000              add [eax],al
00103D12  0000              add [eax],al
00103D14  0000              add [eax],al
00103D16  0000              add [eax],al
00103D18  0000              add [eax],al
00103D1A  0000              add [eax],al
00103D1C  0000              add [eax],al
00103D1E  0000              add [eax],al
00103D20  0000              add [eax],al
00103D22  0000              add [eax],al
00103D24  0000              add [eax],al
00103D26  0000              add [eax],al
00103D28  0000              add [eax],al
00103D2A  0000              add [eax],al
00103D2C  0000              add [eax],al
00103D2E  0000              add [eax],al
00103D30  0000              add [eax],al
00103D32  0000              add [eax],al
00103D34  0000              add [eax],al
00103D36  0000              add [eax],al
00103D38  0000              add [eax],al
00103D3A  0000              add [eax],al
00103D3C  0000              add [eax],al
00103D3E  0000              add [eax],al
00103D40  0000              add [eax],al
00103D42  0000              add [eax],al
00103D44  0000              add [eax],al
00103D46  0000              add [eax],al
00103D48  0000              add [eax],al
00103D4A  0000              add [eax],al
00103D4C  0000              add [eax],al
00103D4E  0000              add [eax],al
00103D50  0000              add [eax],al
00103D52  0000              add [eax],al
00103D54  0000              add [eax],al
00103D56  0000              add [eax],al
00103D58  0000              add [eax],al
00103D5A  0000              add [eax],al
00103D5C  0000              add [eax],al
00103D5E  0000              add [eax],al
00103D60  0000              add [eax],al
00103D62  0000              add [eax],al
00103D64  0000              add [eax],al
00103D66  0000              add [eax],al
00103D68  0000              add [eax],al
00103D6A  0000              add [eax],al
00103D6C  0000              add [eax],al
00103D6E  0000              add [eax],al
00103D70  0000              add [eax],al
00103D72  0000              add [eax],al
00103D74  0000              add [eax],al
00103D76  0000              add [eax],al
00103D78  0000              add [eax],al
00103D7A  0000              add [eax],al
00103D7C  0000              add [eax],al
00103D7E  0000              add [eax],al
00103D80  0000              add [eax],al
00103D82  0000              add [eax],al
00103D84  0000              add [eax],al
00103D86  0000              add [eax],al
00103D88  0000              add [eax],al
00103D8A  0000              add [eax],al
00103D8C  0000              add [eax],al
00103D8E  0000              add [eax],al
00103D90  0000              add [eax],al
00103D92  0000              add [eax],al
00103D94  0000              add [eax],al
00103D96  0000              add [eax],al
00103D98  0000              add [eax],al
00103D9A  0000              add [eax],al
00103D9C  0000              add [eax],al
00103D9E  0000              add [eax],al
00103DA0  0000              add [eax],al
00103DA2  0000              add [eax],al
00103DA4  0000              add [eax],al
00103DA6  0000              add [eax],al
00103DA8  0000              add [eax],al
00103DAA  0000              add [eax],al
00103DAC  0000              add [eax],al
00103DAE  0000              add [eax],al
00103DB0  0000              add [eax],al
00103DB2  0000              add [eax],al
00103DB4  0000              add [eax],al
00103DB6  0000              add [eax],al
00103DB8  0000              add [eax],al
00103DBA  0000              add [eax],al
00103DBC  0000              add [eax],al
00103DBE  0000              add [eax],al
00103DC0  0000              add [eax],al
00103DC2  0000              add [eax],al
00103DC4  0000              add [eax],al
00103DC6  0000              add [eax],al
00103DC8  0000              add [eax],al
00103DCA  0000              add [eax],al
00103DCC  0000              add [eax],al
00103DCE  0000              add [eax],al
00103DD0  0000              add [eax],al
00103DD2  0000              add [eax],al
00103DD4  0000              add [eax],al
00103DD6  0000              add [eax],al
00103DD8  0000              add [eax],al
00103DDA  0000              add [eax],al
00103DDC  0000              add [eax],al
00103DDE  0000              add [eax],al
00103DE0  0000              add [eax],al
00103DE2  0000              add [eax],al
00103DE4  0000              add [eax],al
00103DE6  0000              add [eax],al
00103DE8  0000              add [eax],al
00103DEA  0000              add [eax],al
00103DEC  0000              add [eax],al
00103DEE  0000              add [eax],al
00103DF0  0000              add [eax],al
00103DF2  0000              add [eax],al
00103DF4  0000              add [eax],al
00103DF6  0000              add [eax],al
00103DF8  0000              add [eax],al
00103DFA  0000              add [eax],al
00103DFC  0000              add [eax],al
00103DFE  0000              add [eax],al
00103E00  0000              add [eax],al
00103E02  0000              add [eax],al
00103E04  0000              add [eax],al
00103E06  0000              add [eax],al
00103E08  0000              add [eax],al
00103E0A  0000              add [eax],al
00103E0C  0000              add [eax],al
00103E0E  0000              add [eax],al
00103E10  0000              add [eax],al
00103E12  0000              add [eax],al
00103E14  0000              add [eax],al
00103E16  0000              add [eax],al
00103E18  0000              add [eax],al
00103E1A  0000              add [eax],al
00103E1C  0000              add [eax],al
00103E1E  0000              add [eax],al
00103E20  0000              add [eax],al
00103E22  0000              add [eax],al
00103E24  0000              add [eax],al
00103E26  0000              add [eax],al
00103E28  0000              add [eax],al
00103E2A  0000              add [eax],al
00103E2C  0000              add [eax],al
00103E2E  0000              add [eax],al
00103E30  0000              add [eax],al
00103E32  0000              add [eax],al
00103E34  0000              add [eax],al
00103E36  0000              add [eax],al
00103E38  0000              add [eax],al
00103E3A  0000              add [eax],al
00103E3C  0000              add [eax],al
00103E3E  0000              add [eax],al
00103E40  0000              add [eax],al
00103E42  0000              add [eax],al
00103E44  0000              add [eax],al
00103E46  0000              add [eax],al
00103E48  0000              add [eax],al
00103E4A  0000              add [eax],al
00103E4C  0000              add [eax],al
00103E4E  0000              add [eax],al
00103E50  0000              add [eax],al
00103E52  0000              add [eax],al
00103E54  0000              add [eax],al
00103E56  0000              add [eax],al
00103E58  0000              add [eax],al
00103E5A  0000              add [eax],al
00103E5C  0000              add [eax],al
00103E5E  0000              add [eax],al
00103E60  0000              add [eax],al
00103E62  0000              add [eax],al
00103E64  0000              add [eax],al
00103E66  0000              add [eax],al
00103E68  0000              add [eax],al
00103E6A  0000              add [eax],al
00103E6C  0000              add [eax],al
00103E6E  0000              add [eax],al
00103E70  0000              add [eax],al
00103E72  0000              add [eax],al
00103E74  0000              add [eax],al
00103E76  0000              add [eax],al
00103E78  0000              add [eax],al
00103E7A  0000              add [eax],al
00103E7C  0000              add [eax],al
00103E7E  0000              add [eax],al
00103E80  0000              add [eax],al
00103E82  0000              add [eax],al
00103E84  0000              add [eax],al
00103E86  0000              add [eax],al
00103E88  0000              add [eax],al
00103E8A  0000              add [eax],al
00103E8C  0000              add [eax],al
00103E8E  0000              add [eax],al
00103E90  0000              add [eax],al
00103E92  0000              add [eax],al
00103E94  0000              add [eax],al
00103E96  0000              add [eax],al
00103E98  0000              add [eax],al
00103E9A  0000              add [eax],al
00103E9C  0000              add [eax],al
00103E9E  0000              add [eax],al
00103EA0  0000              add [eax],al
00103EA2  0000              add [eax],al
00103EA4  0000              add [eax],al
00103EA6  0000              add [eax],al
00103EA8  0000              add [eax],al
00103EAA  0000              add [eax],al
00103EAC  0000              add [eax],al
00103EAE  0000              add [eax],al
00103EB0  0000              add [eax],al
00103EB2  0000              add [eax],al
00103EB4  0000              add [eax],al
00103EB6  0000              add [eax],al
00103EB8  0000              add [eax],al
00103EBA  0000              add [eax],al
00103EBC  0000              add [eax],al
00103EBE  0000              add [eax],al
00103EC0  0000              add [eax],al
00103EC2  0000              add [eax],al
00103EC4  0000              add [eax],al
00103EC6  0000              add [eax],al
00103EC8  0000              add [eax],al
00103ECA  0000              add [eax],al
00103ECC  0000              add [eax],al
00103ECE  0000              add [eax],al
00103ED0  0000              add [eax],al
00103ED2  0000              add [eax],al
00103ED4  0000              add [eax],al
00103ED6  0000              add [eax],al
00103ED8  0000              add [eax],al
00103EDA  0000              add [eax],al
00103EDC  0000              add [eax],al
00103EDE  0000              add [eax],al
00103EE0  0000              add [eax],al
00103EE2  0000              add [eax],al
00103EE4  0000              add [eax],al
00103EE6  0000              add [eax],al
00103EE8  0000              add [eax],al
00103EEA  0000              add [eax],al
00103EEC  0000              add [eax],al
00103EEE  0000              add [eax],al
00103EF0  0000              add [eax],al
00103EF2  0000              add [eax],al
00103EF4  0000              add [eax],al
00103EF6  0000              add [eax],al
00103EF8  0000              add [eax],al
00103EFA  0000              add [eax],al
00103EFC  0000              add [eax],al
00103EFE  0000              add [eax],al
00103F00  0000              add [eax],al
00103F02  0000              add [eax],al
00103F04  0000              add [eax],al
00103F06  0000              add [eax],al
00103F08  0000              add [eax],al
00103F0A  0000              add [eax],al
00103F0C  0000              add [eax],al
00103F0E  0000              add [eax],al
00103F10  0000              add [eax],al
00103F12  0000              add [eax],al
00103F14  0000              add [eax],al
00103F16  0000              add [eax],al
00103F18  0000              add [eax],al
00103F1A  0000              add [eax],al
00103F1C  0000              add [eax],al
00103F1E  0000              add [eax],al
00103F20  0000              add [eax],al
00103F22  0000              add [eax],al
00103F24  0000              add [eax],al
00103F26  0000              add [eax],al
00103F28  0000              add [eax],al
00103F2A  0000              add [eax],al
00103F2C  0000              add [eax],al
00103F2E  0000              add [eax],al
00103F30  0000              add [eax],al
00103F32  0000              add [eax],al
00103F34  0000              add [eax],al
00103F36  0000              add [eax],al
00103F38  0000              add [eax],al
00103F3A  0000              add [eax],al
00103F3C  0000              add [eax],al
00103F3E  0000              add [eax],al
00103F40  0000              add [eax],al
00103F42  0000              add [eax],al
00103F44  0000              add [eax],al
00103F46  0000              add [eax],al
00103F48  0000              add [eax],al
00103F4A  0000              add [eax],al
00103F4C  0000              add [eax],al
00103F4E  0000              add [eax],al
00103F50  0000              add [eax],al
00103F52  0000              add [eax],al
00103F54  0000              add [eax],al
00103F56  0000              add [eax],al
00103F58  0000              add [eax],al
00103F5A  0000              add [eax],al
00103F5C  0000              add [eax],al
00103F5E  0000              add [eax],al
00103F60  0000              add [eax],al
00103F62  0000              add [eax],al
00103F64  0000              add [eax],al
00103F66  0000              add [eax],al
00103F68  0000              add [eax],al
00103F6A  0000              add [eax],al
00103F6C  0000              add [eax],al
00103F6E  0000              add [eax],al
00103F70  0000              add [eax],al
00103F72  0000              add [eax],al
00103F74  0000              add [eax],al
00103F76  0000              add [eax],al
00103F78  0000              add [eax],al
00103F7A  0000              add [eax],al
00103F7C  0000              add [eax],al
00103F7E  0000              add [eax],al
00103F80  0000              add [eax],al
00103F82  0000              add [eax],al
00103F84  0000              add [eax],al
00103F86  0000              add [eax],al
00103F88  0000              add [eax],al
00103F8A  0000              add [eax],al
00103F8C  0000              add [eax],al
00103F8E  0000              add [eax],al
00103F90  0000              add [eax],al
00103F92  0000              add [eax],al
00103F94  0000              add [eax],al
00103F96  0000              add [eax],al
00103F98  0000              add [eax],al
00103F9A  0000              add [eax],al
00103F9C  0000              add [eax],al
00103F9E  0000              add [eax],al
00103FA0  0000              add [eax],al
00103FA2  0000              add [eax],al
00103FA4  0000              add [eax],al
00103FA6  0000              add [eax],al
00103FA8  0000              add [eax],al
00103FAA  0000              add [eax],al
00103FAC  0000              add [eax],al
00103FAE  0000              add [eax],al
00103FB0  0000              add [eax],al
00103FB2  0000              add [eax],al
00103FB4  0000              add [eax],al
00103FB6  0000              add [eax],al
00103FB8  0000              add [eax],al
00103FBA  0000              add [eax],al
00103FBC  0000              add [eax],al
00103FBE  0000              add [eax],al
00103FC0  0000              add [eax],al
00103FC2  0000              add [eax],al
00103FC4  0000              add [eax],al
00103FC6  0000              add [eax],al
00103FC8  0000              add [eax],al
00103FCA  0000              add [eax],al
00103FCC  0000              add [eax],al
00103FCE  0000              add [eax],al
00103FD0  0000              add [eax],al
00103FD2  0000              add [eax],al
00103FD4  0000              add [eax],al
00103FD6  0000              add [eax],al
00103FD8  0000              add [eax],al
00103FDA  0000              add [eax],al
00103FDC  0000              add [eax],al
00103FDE  0000              add [eax],al
00103FE0  0000              add [eax],al
00103FE2  0000              add [eax],al
00103FE4  0000              add [eax],al
00103FE6  0000              add [eax],al
00103FE8  0000              add [eax],al
00103FEA  0000              add [eax],al
00103FEC  0000              add [eax],al
00103FEE  0000              add [eax],al
00103FF0  0000              add [eax],al
00103FF2  0000              add [eax],al
00103FF4  0000              add [eax],al
00103FF6  0000              add [eax],al
00103FF8  0000              add [eax],al
00103FFA  0000              add [eax],al
00103FFC  0000              add [eax],al
00103FFE  0000              add [eax],al
00104000  54                push esp
00104001  61                popa
00104002  6E                outsb
00104003  67657269          gs jc 0x104070
00104007  6E                outsb
00104008  65205379          and [gs:ebx+0x79],dl
0010400C  7374              jnc 0x104082
0010400E  656D              gs insd
00104010  20536F            and [ebx+0x6f],dl
00104013  667477            o16 jz 0x10408d
00104016  61                popa
00104017  7265              jc 0x10407e
00104019  0A00              or al,[eax]
0010401B  646F              fs outsd
0010401D  6E                outsb
0010401E  650A00            or al,[gs:eax]
00104021  627573            bound esi,[ebp+0x73]
00104024  5F                pop edi
00104025  7073              jo 0x10409a
00104027  3200              xor al,[eax]
00104029  6B657962          imul esp,[ebp+0x79],byte +0x62
0010402D  6F                outsd
0010402E  61                popa
0010402F  7264              jc 0x104095
00104031  5F                pop edi
00104032  7073              jo 0x1040a7
00104034  3200              xor al,[eax]
00104036  6469736B5F696465  imul esi,[fs:ebx+0x6b],dword 0x6564695f
0010403E  0000              add [eax],al
00104040  3031              xor [ecx],dh
00104042  3233              xor dh,[ebx]
00104044  3435              xor al,0x35
00104046  3637              ss aaa
00104048  384142            cmp [ecx+0x42],al
0010404B  43                inc ebx
0010404C  44                inc esp
0010404D  45                inc ebp
0010404E  46                inc esi
0010404F  0030              add [eax],dh
00104051  3132              xor [edx],esi
00104053  33343536373839    xor esi,[esi+0x39383736]
0010405A  61                popa
0010405B  626364            bound esp,[ebx+0x64]
0010405E  65660000          o16 add [gs:eax],al
00104062  0000              add [eax],al
00104064  3C49              cmp al,0x49
00104066  4E                dec esi
00104067  54                push esp
00104068  2030              and [eax],dh
0010406A  7825              js 0x104091
0010406C  7820              js 0x10408e
0010406E  284350            sub [ebx+0x50],al
00104071  55                push ebp
00104072  2920              sub [eax],esp
00104074  4E                dec esi
00104075  4F                dec edi
00104076  54                push esp
00104077  204841            and [eax+0x41],cl
0010407A  4E                dec esi
0010407B  44                inc esp
0010407C  4C                dec esp
0010407D  45                inc ebp
0010407E  44                inc esp
0010407F  204259            and [edx+0x59],al
00104082  204B45            and [ebx+0x45],cl
00104085  52                push edx
00104086  4E                dec esi
00104087  45                inc ebp
00104088  4C                dec esp
00104089  3E0A00            or al,[ds:eax]
0010408C  3C49              cmp al,0x49
0010408E  4E                dec esi
0010408F  54                push esp
00104090  2030              and [eax],dh
00104092  7825              js 0x1040b9
00104094  7820              js 0x1040b6
00104096  284953            sub [ecx+0x53],cl
00104099  52                push edx
0010409A  20257529204E      and [dword 0x4e202975],ah
001040A0  4F                dec edi
001040A1  54                push esp
001040A2  204841            and [eax+0x41],cl
001040A5  4E                dec esi
001040A6  44                inc esp
001040A7  4C                dec esp
001040A8  45                inc ebp
001040A9  44                inc esp
001040AA  204259            and [edx+0x59],al
001040AD  204B45            and [ebx+0x45],cl
001040B0  52                push edx
001040B1  4E                dec esi
001040B2  45                inc ebp
001040B3  4C                dec esp
001040B4  3E0A00            or al,[ds:eax]
001040B7  3C49              cmp al,0x49
001040B9  4E                dec esi
001040BA  54                push esp
001040BB  2030              and [eax],dh
001040BD  7825              js 0x1040e4
001040BF  7820              js 0x1040e1
001040C1  28554E            sub [ebp+0x4e],dl
001040C4  4B                dec ebx
001040C5  4E                dec esi
001040C6  4F                dec edi
001040C7  57                push edi
001040C8  4E                dec esi
001040C9  2920              sub [eax],esp
001040CB  4E                dec esi
001040CC  4F                dec edi
001040CD  54                push esp
001040CE  204841            and [eax+0x41],cl
001040D1  4E                dec esi
001040D2  44                inc esp
001040D3  4C                dec esp
001040D4  45                inc ebp
001040D5  44                inc esp
001040D6  204259            and [edx+0x59],al
001040D9  204B45            and [ebx+0x45],cl
001040DC  52                push edx
001040DD  4E                dec esi
001040DE  45                inc ebp
001040DF  4C                dec esp
001040E0  3E0A00            or al,[ds:eax]
001040E3  004552            add [ebp+0x52],al
001040E6  52                push edx
001040E7  4F                dec edi
001040E8  52                push edx
001040E9  3A20              cmp ah,[eax]
001040EB  4D                dec ebp
001040EC  4F                dec edi
001040ED  44                inc esp
001040EE  55                push ebp
001040EF  4C                dec esp
001040F0  45                inc ebp
001040F1  204C4953          and [ecx+ecx*2+0x53],cl
001040F5  54                push esp
001040F6  204F56            and [edi+0x56],cl
001040F9  45                inc ebp
001040FA  52                push edx
001040FB  46                inc esi
001040FC  4C                dec esp
001040FD  4F                dec edi
001040FE  57                push edi
001040FF  0A00              or al,[eax]
00104101  4D                dec ebp
00104102  6F                outsd
00104103  64756C            fs jnz 0x104172
00104106  6520666F          and [gs:esi+0x6f],ah
0010410A  756E              jnz 0x10417a
0010410C  643A20            cmp ah,[fs:eax]
0010410F  25730A0000        and eax,0xa73
00104114  45                inc ebp
00104115  52                push edx
00104116  52                push edx
00104117  4F                dec edi
00104118  52                push edx
00104119  3A20              cmp ah,[eax]
0010411B  54                push esp
0010411C  696D6572204861    imul ebp,[ebp+0x65],dword 0x61482072
00104123  6E                outsb
00104124  646C              fs insb
00104126  657273            gs jc 0x10419c
00104129  206C6973          and [ecx+ebp*2+0x73],ch
0010412D  7420              jz 0x10414f
0010412F  6F                outsd
00104130  7665              jna 0x104197
00104132  7266              jc 0x10419a
00104134  6C                insb
00104135  6F                outsd
00104136  772E              ja 0x104166
00104138  0A00              or al,[eax]
0010413A  0000              add [eax],al
0010413C  49                dec ecx
0010413D  6E                outsb
0010413E  697469616C697A69  imul esi,[ecx+ebp*2+0x61],dword 0x697a696c
00104146  6E                outsb
00104147  67205053          and [bx+si+0x53],dl
0010414B  2F                das
0010414C  3220              xor ah,[eax]
0010414E  42                inc edx
0010414F  7573              jnz 0x1041c4
00104151  002E              add [esi],ch
00104153  002E              add [esi],ch
00104155  002E              add [esi],ch
00104157  002E              add [esi],ch
00104159  002E              add [esi],ch
0010415B  002E              add [esi],ch
0010415D  002E              add [esi],ch
0010415F  6F                outsd
00104160  6B0A00            imul ecx,[edx],byte +0x0
00104163  00496E            add [ecx+0x6e],cl
00104166  697469616C697A69  imul esi,[ecx+ebp*2+0x61],dword 0x697a696c
0010416E  6E                outsb
0010416F  67204944          and [bx+di+0x44],cl
00104173  45                inc ebp
00104174  20436F            and [ebx+0x6f],al
00104177  6E                outsb
00104178  7472              jz 0x1041ec
0010417A  6F                outsd
0010417B  6C                insb
0010417C  6C                insb
0010417D  657200            gs jc 0x104180
00104180  2E6F              cs outsd
00104182  6B0A00            imul ecx,[edx],byte +0x0
00104185  0000              add [eax],al
00104187  004B45            add [ebx+0x45],cl
0010418A  59                pop ecx
0010418B  205052            and [eax+0x52],dl
0010418E  45                inc ebp
0010418F  53                push ebx
00104190  53                push ebx
00104191  2020              and [eax],ah
00104193  202578202725      and [dword 0x25272078],ah
00104199  6327              arpl [edi],sp
0010419B  205B25            and [ebx+0x25],bl
0010419E  735D              jnc 0x1041fd
001041A0  0A00              or al,[eax]
001041A2  53                push ebx
001041A3  48                dec eax
001041A4  49                dec ecx
001041A5  46                inc esi
001041A6  54                push esp
001041A7  0000              add [eax],al
001041A9  4B                dec ebx
001041AA  45                inc ebp
001041AB  59                pop ecx
001041AC  205245            and [edx+0x45],dl
001041AF  4C                dec esp
001041B0  45                inc ebp
001041B1  41                inc ecx
001041B2  53                push ebx
001041B3  45                inc ebp
001041B4  202578202725      and [dword 0x25272078],ah
001041BA  6327              arpl [edi],sp
001041BC  205B25            and [ebx+0x25],bl
001041BF  735D              jnc 0x10421e
001041C1  0A00              or al,[eax]
001041C3  53                push ebx
001041C4  48                dec eax
001041C5  49                dec ecx
001041C6  46                inc esi
001041C7  54                push esp
001041C8  0000              add [eax],al
001041CA  49                dec ecx
001041CB  6E                outsb
001041CC  697469616C697A69  imul esi,[ecx+ebp*2+0x61],dword 0x697a696c
001041D4  6E                outsb
001041D5  67205053          and [bx+si+0x53],dl
001041D9  2F                das
001041DA  3220              xor ah,[eax]
001041DC  6B657962          imul esp,[ebp+0x79],byte +0x62
001041E0  6F                outsd
001041E1  61                popa
001041E2  7264              jc 0x104248
001041E4  002E              add [esi],ch
001041E6  6F                outsd
001041E7  6B0A00            imul ecx,[edx],byte +0x0
001041EA  0000              add [eax],al
001041EC  0000              add [eax],al
001041EE  0000              add [eax],al
001041F0  0000              add [eax],al
001041F2  0000              add [eax],al
001041F4  0000              add [eax],al
001041F6  0000              add [eax],al
001041F8  0000              add [eax],al
001041FA  0000              add [eax],al
001041FC  0000              add [eax],al
001041FE  0000              add [eax],al
00104200  0000              add [eax],al
00104202  0000              add [eax],al
00104204  0000              add [eax],al
00104206  0000              add [eax],al
00104208  0000              add [eax],al
0010420A  0000              add [eax],al
0010420C  0000              add [eax],al
0010420E  0000              add [eax],al
00104210  0000              add [eax],al
00104212  0000              add [eax],al
00104214  0000              add [eax],al
00104216  0000              add [eax],al
00104218  0000              add [eax],al
0010421A  0000              add [eax],al
0010421C  0000              add [eax],al
0010421E  0000              add [eax],al
00104220  0000              add [eax],al
00104222  0000              add [eax],al
00104224  0000              add [eax],al
00104226  0000              add [eax],al
00104228  0000              add [eax],al
0010422A  0000              add [eax],al
0010422C  0000              add [eax],al
0010422E  0000              add [eax],al
00104230  0000              add [eax],al
00104232  0000              add [eax],al
00104234  0000              add [eax],al
00104236  0000              add [eax],al
00104238  0000              add [eax],al
0010423A  0000              add [eax],al
0010423C  0000              add [eax],al
0010423E  0000              add [eax],al
00104240  0000              add [eax],al
00104242  0000              add [eax],al
00104244  0000              add [eax],al
00104246  0000              add [eax],al
00104248  0000              add [eax],al
0010424A  0000              add [eax],al
0010424C  0000              add [eax],al
0010424E  0000              add [eax],al
00104250  0000              add [eax],al
00104252  0000              add [eax],al
00104254  0000              add [eax],al
00104256  0000              add [eax],al
00104258  0000              add [eax],al
0010425A  0000              add [eax],al
0010425C  0000              add [eax],al
0010425E  0000              add [eax],al
00104260  0000              add [eax],al
00104262  0000              add [eax],al
00104264  0000              add [eax],al
00104266  0000              add [eax],al
00104268  0000              add [eax],al
0010426A  0000              add [eax],al
0010426C  0000              add [eax],al
0010426E  0000              add [eax],al
00104270  0000              add [eax],al
00104272  0000              add [eax],al
00104274  0000              add [eax],al
00104276  0000              add [eax],al
00104278  0000              add [eax],al
0010427A  0000              add [eax],al
0010427C  0000              add [eax],al
0010427E  0000              add [eax],al
00104280  0000              add [eax],al
00104282  0000              add [eax],al
00104284  0000              add [eax],al
00104286  0000              add [eax],al
00104288  0000              add [eax],al
0010428A  0000              add [eax],al
0010428C  0000              add [eax],al
0010428E  0000              add [eax],al
00104290  0000              add [eax],al
00104292  0000              add [eax],al
00104294  0000              add [eax],al
00104296  0000              add [eax],al
00104298  0000              add [eax],al
0010429A  0000              add [eax],al
0010429C  0000              add [eax],al
0010429E  0000              add [eax],al
001042A0  0000              add [eax],al
001042A2  0000              add [eax],al
001042A4  0000              add [eax],al
001042A6  0000              add [eax],al
001042A8  0000              add [eax],al
001042AA  0000              add [eax],al
001042AC  0000              add [eax],al
001042AE  0000              add [eax],al
001042B0  0000              add [eax],al
001042B2  0000              add [eax],al
001042B4  0000              add [eax],al
001042B6  0000              add [eax],al
001042B8  0000              add [eax],al
001042BA  0000              add [eax],al
001042BC  0000              add [eax],al
001042BE  0000              add [eax],al
001042C0  0000              add [eax],al
001042C2  0000              add [eax],al
001042C4  0000              add [eax],al
001042C6  0000              add [eax],al
001042C8  0000              add [eax],al
001042CA  0000              add [eax],al
001042CC  0000              add [eax],al
001042CE  0000              add [eax],al
001042D0  0000              add [eax],al
001042D2  0000              add [eax],al
001042D4  0000              add [eax],al
001042D6  0000              add [eax],al
001042D8  0000              add [eax],al
001042DA  0000              add [eax],al
001042DC  0000              add [eax],al
001042DE  0000              add [eax],al
001042E0  0000              add [eax],al
001042E2  0000              add [eax],al
001042E4  0000              add [eax],al
001042E6  0000              add [eax],al
001042E8  0000              add [eax],al
001042EA  0000              add [eax],al
001042EC  0000              add [eax],al
001042EE  0000              add [eax],al
001042F0  0000              add [eax],al
001042F2  0000              add [eax],al
001042F4  0000              add [eax],al
001042F6  0000              add [eax],al
001042F8  0000              add [eax],al
001042FA  0000              add [eax],al
001042FC  0000              add [eax],al
001042FE  0000              add [eax],al
00104300  0000              add [eax],al
00104302  0000              add [eax],al
00104304  0000              add [eax],al
00104306  0000              add [eax],al
00104308  0000              add [eax],al
0010430A  0000              add [eax],al
0010430C  0000              add [eax],al
0010430E  0000              add [eax],al
00104310  0000              add [eax],al
00104312  0000              add [eax],al
00104314  0000              add [eax],al
00104316  0000              add [eax],al
00104318  0000              add [eax],al
0010431A  0000              add [eax],al
0010431C  0000              add [eax],al
0010431E  0000              add [eax],al
00104320  0000              add [eax],al
00104322  0000              add [eax],al
00104324  0000              add [eax],al
00104326  0000              add [eax],al
00104328  0000              add [eax],al
0010432A  0000              add [eax],al
0010432C  0000              add [eax],al
0010432E  0000              add [eax],al
00104330  0000              add [eax],al
00104332  0000              add [eax],al
00104334  0000              add [eax],al
00104336  0000              add [eax],al
00104338  0000              add [eax],al
0010433A  0000              add [eax],al
0010433C  0000              add [eax],al
0010433E  0000              add [eax],al
00104340  0000              add [eax],al
00104342  0000              add [eax],al
00104344  0000              add [eax],al
00104346  0000              add [eax],al
00104348  0000              add [eax],al
0010434A  0000              add [eax],al
0010434C  0000              add [eax],al
0010434E  0000              add [eax],al
00104350  0000              add [eax],al
00104352  0000              add [eax],al
00104354  0000              add [eax],al
00104356  0000              add [eax],al
00104358  0000              add [eax],al
0010435A  0000              add [eax],al
0010435C  0000              add [eax],al
0010435E  0000              add [eax],al
00104360  0000              add [eax],al
00104362  0000              add [eax],al
00104364  0000              add [eax],al
00104366  0000              add [eax],al
00104368  0000              add [eax],al
0010436A  0000              add [eax],al
0010436C  0000              add [eax],al
0010436E  0000              add [eax],al
00104370  0000              add [eax],al
00104372  0000              add [eax],al
00104374  0000              add [eax],al
00104376  0000              add [eax],al
00104378  0000              add [eax],al
0010437A  0000              add [eax],al
0010437C  0000              add [eax],al
0010437E  0000              add [eax],al
00104380  0000              add [eax],al
00104382  0000              add [eax],al
00104384  0000              add [eax],al
00104386  0000              add [eax],al
00104388  0000              add [eax],al
0010438A  0000              add [eax],al
0010438C  0000              add [eax],al
0010438E  0000              add [eax],al
00104390  0000              add [eax],al
00104392  0000              add [eax],al
00104394  0000              add [eax],al
00104396  0000              add [eax],al
00104398  0000              add [eax],al
0010439A  0000              add [eax],al
0010439C  0000              add [eax],al
0010439E  0000              add [eax],al
001043A0  0000              add [eax],al
001043A2  0000              add [eax],al
001043A4  0000              add [eax],al
001043A6  0000              add [eax],al
001043A8  0000              add [eax],al
001043AA  0000              add [eax],al
001043AC  0000              add [eax],al
001043AE  0000              add [eax],al
001043B0  0000              add [eax],al
001043B2  0000              add [eax],al
001043B4  0000              add [eax],al
001043B6  0000              add [eax],al
001043B8  0000              add [eax],al
001043BA  0000              add [eax],al
001043BC  0000              add [eax],al
001043BE  0000              add [eax],al
001043C0  0000              add [eax],al
001043C2  0000              add [eax],al
001043C4  0000              add [eax],al
001043C6  0000              add [eax],al
001043C8  0000              add [eax],al
001043CA  0000              add [eax],al
001043CC  0000              add [eax],al
001043CE  0000              add [eax],al
001043D0  0000              add [eax],al
001043D2  0000              add [eax],al
001043D4  0000              add [eax],al
001043D6  0000              add [eax],al
001043D8  0000              add [eax],al
001043DA  0000              add [eax],al
001043DC  0000              add [eax],al
001043DE  0000              add [eax],al
001043E0  0000              add [eax],al
001043E2  0000              add [eax],al
001043E4  0000              add [eax],al
001043E6  0000              add [eax],al
001043E8  0000              add [eax],al
001043EA  0000              add [eax],al
001043EC  0000              add [eax],al
001043EE  0000              add [eax],al
001043F0  0000              add [eax],al
001043F2  0000              add [eax],al
001043F4  0000              add [eax],al
001043F6  0000              add [eax],al
001043F8  0000              add [eax],al
001043FA  0000              add [eax],al
001043FC  0000              add [eax],al
001043FE  0000              add [eax],al
00104400  0000              add [eax],al
00104402  0000              add [eax],al
00104404  0000              add [eax],al
00104406  0000              add [eax],al
00104408  0000              add [eax],al
0010440A  0000              add [eax],al
0010440C  0000              add [eax],al
0010440E  0000              add [eax],al
00104410  0000              add [eax],al
00104412  0000              add [eax],al
00104414  0000              add [eax],al
00104416  0000              add [eax],al
00104418  0000              add [eax],al
0010441A  0000              add [eax],al
0010441C  0000              add [eax],al
0010441E  0000              add [eax],al
00104420  0000              add [eax],al
00104422  0000              add [eax],al
00104424  0000              add [eax],al
00104426  0000              add [eax],al
00104428  0000              add [eax],al
0010442A  0000              add [eax],al
0010442C  0000              add [eax],al
0010442E  0000              add [eax],al
00104430  0000              add [eax],al
00104432  0000              add [eax],al
00104434  0000              add [eax],al
00104436  0000              add [eax],al
00104438  0000              add [eax],al
0010443A  0000              add [eax],al
0010443C  0000              add [eax],al
0010443E  0000              add [eax],al
00104440  0000              add [eax],al
00104442  0000              add [eax],al
00104444  0000              add [eax],al
00104446  0000              add [eax],al
00104448  0000              add [eax],al
0010444A  0000              add [eax],al
0010444C  0000              add [eax],al
0010444E  0000              add [eax],al
00104450  0000              add [eax],al
00104452  0000              add [eax],al
00104454  0000              add [eax],al
00104456  0000              add [eax],al
00104458  0000              add [eax],al
0010445A  0000              add [eax],al
0010445C  0000              add [eax],al
0010445E  0000              add [eax],al
00104460  0000              add [eax],al
00104462  0000              add [eax],al
00104464  0000              add [eax],al
00104466  0000              add [eax],al
00104468  0000              add [eax],al
0010446A  0000              add [eax],al
0010446C  0000              add [eax],al
0010446E  0000              add [eax],al
00104470  0000              add [eax],al
00104472  0000              add [eax],al
00104474  0000              add [eax],al
00104476  0000              add [eax],al
00104478  0000              add [eax],al
0010447A  0000              add [eax],al
0010447C  0000              add [eax],al
0010447E  0000              add [eax],al
00104480  0000              add [eax],al
00104482  0000              add [eax],al
00104484  0000              add [eax],al
00104486  0000              add [eax],al
00104488  0000              add [eax],al
0010448A  0000              add [eax],al
0010448C  0000              add [eax],al
0010448E  0000              add [eax],al
00104490  0000              add [eax],al
00104492  0000              add [eax],al
00104494  0000              add [eax],al
00104496  0000              add [eax],al
00104498  0000              add [eax],al
0010449A  0000              add [eax],al
0010449C  0000              add [eax],al
0010449E  0000              add [eax],al
001044A0  0000              add [eax],al
001044A2  0000              add [eax],al
001044A4  0000              add [eax],al
001044A6  0000              add [eax],al
001044A8  0000              add [eax],al
001044AA  0000              add [eax],al
001044AC  0000              add [eax],al
001044AE  0000              add [eax],al
001044B0  0000              add [eax],al
001044B2  0000              add [eax],al
001044B4  0000              add [eax],al
001044B6  0000              add [eax],al
001044B8  0000              add [eax],al
001044BA  0000              add [eax],al
001044BC  0000              add [eax],al
001044BE  0000              add [eax],al
001044C0  0000              add [eax],al
001044C2  0000              add [eax],al
001044C4  0000              add [eax],al
001044C6  0000              add [eax],al
001044C8  0000              add [eax],al
001044CA  0000              add [eax],al
001044CC  0000              add [eax],al
001044CE  0000              add [eax],al
001044D0  0000              add [eax],al
001044D2  0000              add [eax],al
001044D4  0000              add [eax],al
001044D6  0000              add [eax],al
001044D8  0000              add [eax],al
001044DA  0000              add [eax],al
001044DC  0000              add [eax],al
001044DE  0000              add [eax],al
001044E0  0000              add [eax],al
001044E2  0000              add [eax],al
001044E4  0000              add [eax],al
001044E6  0000              add [eax],al
001044E8  0000              add [eax],al
001044EA  0000              add [eax],al
001044EC  0000              add [eax],al
001044EE  0000              add [eax],al
001044F0  0000              add [eax],al
001044F2  0000              add [eax],al
001044F4  0000              add [eax],al
001044F6  0000              add [eax],al
001044F8  0000              add [eax],al
001044FA  0000              add [eax],al
001044FC  0000              add [eax],al
001044FE  0000              add [eax],al
00104500  0000              add [eax],al
00104502  0000              add [eax],al
00104504  0000              add [eax],al
00104506  0000              add [eax],al
00104508  0000              add [eax],al
0010450A  0000              add [eax],al
0010450C  0000              add [eax],al
0010450E  0000              add [eax],al
00104510  0000              add [eax],al
00104512  0000              add [eax],al
00104514  0000              add [eax],al
00104516  0000              add [eax],al
00104518  0000              add [eax],al
0010451A  0000              add [eax],al
0010451C  0000              add [eax],al
0010451E  0000              add [eax],al
00104520  0000              add [eax],al
00104522  0000              add [eax],al
00104524  0000              add [eax],al
00104526  0000              add [eax],al
00104528  0000              add [eax],al
0010452A  0000              add [eax],al
0010452C  0000              add [eax],al
0010452E  0000              add [eax],al
00104530  0000              add [eax],al
00104532  0000              add [eax],al
00104534  0000              add [eax],al
00104536  0000              add [eax],al
00104538  0000              add [eax],al
0010453A  0000              add [eax],al
0010453C  0000              add [eax],al
0010453E  0000              add [eax],al
00104540  0000              add [eax],al
00104542  0000              add [eax],al
00104544  0000              add [eax],al
00104546  0000              add [eax],al
00104548  0000              add [eax],al
0010454A  0000              add [eax],al
0010454C  0000              add [eax],al
0010454E  0000              add [eax],al
00104550  0000              add [eax],al
00104552  0000              add [eax],al
00104554  0000              add [eax],al
00104556  0000              add [eax],al
00104558  0000              add [eax],al
0010455A  0000              add [eax],al
0010455C  0000              add [eax],al
0010455E  0000              add [eax],al
00104560  0000              add [eax],al
00104562  0000              add [eax],al
00104564  0000              add [eax],al
00104566  0000              add [eax],al
00104568  0000              add [eax],al
0010456A  0000              add [eax],al
0010456C  0000              add [eax],al
0010456E  0000              add [eax],al
00104570  0000              add [eax],al
00104572  0000              add [eax],al
00104574  0000              add [eax],al
00104576  0000              add [eax],al
00104578  0000              add [eax],al
0010457A  0000              add [eax],al
0010457C  0000              add [eax],al
0010457E  0000              add [eax],al
00104580  0000              add [eax],al
00104582  0000              add [eax],al
00104584  0000              add [eax],al
00104586  0000              add [eax],al
00104588  0000              add [eax],al
0010458A  0000              add [eax],al
0010458C  0000              add [eax],al
0010458E  0000              add [eax],al
00104590  0000              add [eax],al
00104592  0000              add [eax],al
00104594  0000              add [eax],al
00104596  0000              add [eax],al
00104598  0000              add [eax],al
0010459A  0000              add [eax],al
0010459C  0000              add [eax],al
0010459E  0000              add [eax],al
001045A0  0000              add [eax],al
001045A2  0000              add [eax],al
001045A4  0000              add [eax],al
001045A6  0000              add [eax],al
001045A8  0000              add [eax],al
001045AA  0000              add [eax],al
001045AC  0000              add [eax],al
001045AE  0000              add [eax],al
001045B0  0000              add [eax],al
001045B2  0000              add [eax],al
001045B4  0000              add [eax],al
001045B6  0000              add [eax],al
001045B8  0000              add [eax],al
001045BA  0000              add [eax],al
001045BC  0000              add [eax],al
001045BE  0000              add [eax],al
001045C0  0000              add [eax],al
001045C2  0000              add [eax],al
001045C4  0000              add [eax],al
001045C6  0000              add [eax],al
001045C8  0000              add [eax],al
001045CA  0000              add [eax],al
001045CC  0000              add [eax],al
001045CE  0000              add [eax],al
001045D0  0000              add [eax],al
001045D2  0000              add [eax],al
001045D4  0000              add [eax],al
001045D6  0000              add [eax],al
001045D8  0000              add [eax],al
001045DA  0000              add [eax],al
001045DC  0000              add [eax],al
001045DE  0000              add [eax],al
001045E0  0000              add [eax],al
001045E2  0000              add [eax],al
001045E4  0000              add [eax],al
001045E6  0000              add [eax],al
001045E8  0000              add [eax],al
001045EA  0000              add [eax],al
001045EC  0000              add [eax],al
001045EE  0000              add [eax],al
001045F0  0000              add [eax],al
001045F2  0000              add [eax],al
001045F4  0000              add [eax],al
001045F6  0000              add [eax],al
001045F8  0000              add [eax],al
001045FA  0000              add [eax],al
001045FC  0000              add [eax],al
001045FE  0000              add [eax],al
00104600  0000              add [eax],al
00104602  0000              add [eax],al
00104604  0000              add [eax],al
00104606  0000              add [eax],al
00104608  0000              add [eax],al
0010460A  0000              add [eax],al
0010460C  0000              add [eax],al
0010460E  0000              add [eax],al
00104610  0000              add [eax],al
00104612  0000              add [eax],al
00104614  0000              add [eax],al
00104616  0000              add [eax],al
00104618  0000              add [eax],al
0010461A  0000              add [eax],al
0010461C  0000              add [eax],al
0010461E  0000              add [eax],al
00104620  0000              add [eax],al
00104622  0000              add [eax],al
00104624  0000              add [eax],al
00104626  0000              add [eax],al
00104628  0000              add [eax],al
0010462A  0000              add [eax],al
0010462C  0000              add [eax],al
0010462E  0000              add [eax],al
00104630  0000              add [eax],al
00104632  0000              add [eax],al
00104634  0000              add [eax],al
00104636  0000              add [eax],al
00104638  0000              add [eax],al
0010463A  0000              add [eax],al
0010463C  0000              add [eax],al
0010463E  0000              add [eax],al
00104640  0000              add [eax],al
00104642  0000              add [eax],al
00104644  0000              add [eax],al
00104646  0000              add [eax],al
00104648  0000              add [eax],al
0010464A  0000              add [eax],al
0010464C  0000              add [eax],al
0010464E  0000              add [eax],al
00104650  0000              add [eax],al
00104652  0000              add [eax],al
00104654  0000              add [eax],al
00104656  0000              add [eax],al
00104658  0000              add [eax],al
0010465A  0000              add [eax],al
0010465C  0000              add [eax],al
0010465E  0000              add [eax],al
00104660  0000              add [eax],al
00104662  0000              add [eax],al
00104664  0000              add [eax],al
00104666  0000              add [eax],al
00104668  0000              add [eax],al
0010466A  0000              add [eax],al
0010466C  0000              add [eax],al
0010466E  0000              add [eax],al
00104670  0000              add [eax],al
00104672  0000              add [eax],al
00104674  0000              add [eax],al
00104676  0000              add [eax],al
00104678  0000              add [eax],al
0010467A  0000              add [eax],al
0010467C  0000              add [eax],al
0010467E  0000              add [eax],al
00104680  0000              add [eax],al
00104682  0000              add [eax],al
00104684  0000              add [eax],al
00104686  0000              add [eax],al
00104688  0000              add [eax],al
0010468A  0000              add [eax],al
0010468C  0000              add [eax],al
0010468E  0000              add [eax],al
00104690  0000              add [eax],al
00104692  0000              add [eax],al
00104694  0000              add [eax],al
00104696  0000              add [eax],al
00104698  0000              add [eax],al
0010469A  0000              add [eax],al
0010469C  0000              add [eax],al
0010469E  0000              add [eax],al
001046A0  0000              add [eax],al
001046A2  0000              add [eax],al
001046A4  0000              add [eax],al
001046A6  0000              add [eax],al
001046A8  0000              add [eax],al
001046AA  0000              add [eax],al
001046AC  0000              add [eax],al
001046AE  0000              add [eax],al
001046B0  0000              add [eax],al
001046B2  0000              add [eax],al
001046B4  0000              add [eax],al
001046B6  0000              add [eax],al
001046B8  0000              add [eax],al
001046BA  0000              add [eax],al
001046BC  0000              add [eax],al
001046BE  0000              add [eax],al
001046C0  0000              add [eax],al
001046C2  0000              add [eax],al
001046C4  0000              add [eax],al
001046C6  0000              add [eax],al
001046C8  0000              add [eax],al
001046CA  0000              add [eax],al
001046CC  0000              add [eax],al
001046CE  0000              add [eax],al
001046D0  0000              add [eax],al
001046D2  0000              add [eax],al
001046D4  0000              add [eax],al
001046D6  0000              add [eax],al
001046D8  0000              add [eax],al
001046DA  0000              add [eax],al
001046DC  0000              add [eax],al
001046DE  0000              add [eax],al
001046E0  0000              add [eax],al
001046E2  0000              add [eax],al
001046E4  0000              add [eax],al
001046E6  0000              add [eax],al
001046E8  0000              add [eax],al
001046EA  0000              add [eax],al
001046EC  0000              add [eax],al
001046EE  0000              add [eax],al
001046F0  0000              add [eax],al
001046F2  0000              add [eax],al
001046F4  0000              add [eax],al
001046F6  0000              add [eax],al
001046F8  0000              add [eax],al
001046FA  0000              add [eax],al
001046FC  0000              add [eax],al
001046FE  0000              add [eax],al
00104700  0000              add [eax],al
00104702  0000              add [eax],al
00104704  0000              add [eax],al
00104706  0000              add [eax],al
00104708  0000              add [eax],al
0010470A  0000              add [eax],al
0010470C  0000              add [eax],al
0010470E  0000              add [eax],al
00104710  0000              add [eax],al
00104712  0000              add [eax],al
00104714  0000              add [eax],al
00104716  0000              add [eax],al
00104718  0000              add [eax],al
0010471A  0000              add [eax],al
0010471C  0000              add [eax],al
0010471E  0000              add [eax],al
00104720  0000              add [eax],al
00104722  0000              add [eax],al
00104724  0000              add [eax],al
00104726  0000              add [eax],al
00104728  0000              add [eax],al
0010472A  0000              add [eax],al
0010472C  0000              add [eax],al
0010472E  0000              add [eax],al
00104730  0000              add [eax],al
00104732  0000              add [eax],al
00104734  0000              add [eax],al
00104736  0000              add [eax],al
00104738  0000              add [eax],al
0010473A  0000              add [eax],al
0010473C  0000              add [eax],al
0010473E  0000              add [eax],al
00104740  0000              add [eax],al
00104742  0000              add [eax],al
00104744  0000              add [eax],al
00104746  0000              add [eax],al
00104748  0000              add [eax],al
0010474A  0000              add [eax],al
0010474C  0000              add [eax],al
0010474E  0000              add [eax],al
00104750  0000              add [eax],al
00104752  0000              add [eax],al
00104754  0000              add [eax],al
00104756  0000              add [eax],al
00104758  0000              add [eax],al
0010475A  0000              add [eax],al
0010475C  0000              add [eax],al
0010475E  0000              add [eax],al
00104760  0000              add [eax],al
00104762  0000              add [eax],al
00104764  0000              add [eax],al
00104766  0000              add [eax],al
00104768  0000              add [eax],al
0010476A  0000              add [eax],al
0010476C  0000              add [eax],al
0010476E  0000              add [eax],al
00104770  0000              add [eax],al
00104772  0000              add [eax],al
00104774  0000              add [eax],al
00104776  0000              add [eax],al
00104778  0000              add [eax],al
0010477A  0000              add [eax],al
0010477C  0000              add [eax],al
0010477E  0000              add [eax],al
00104780  0000              add [eax],al
00104782  0000              add [eax],al
00104784  0000              add [eax],al
00104786  0000              add [eax],al
00104788  0000              add [eax],al
0010478A  0000              add [eax],al
0010478C  0000              add [eax],al
0010478E  0000              add [eax],al
00104790  0000              add [eax],al
00104792  0000              add [eax],al
00104794  0000              add [eax],al
00104796  0000              add [eax],al
00104798  0000              add [eax],al
0010479A  0000              add [eax],al
0010479C  0000              add [eax],al
0010479E  0000              add [eax],al
001047A0  0000              add [eax],al
001047A2  0000              add [eax],al
001047A4  0000              add [eax],al
001047A6  0000              add [eax],al
001047A8  0000              add [eax],al
001047AA  0000              add [eax],al
001047AC  0000              add [eax],al
001047AE  0000              add [eax],al
001047B0  0000              add [eax],al
001047B2  0000              add [eax],al
001047B4  0000              add [eax],al
001047B6  0000              add [eax],al
001047B8  0000              add [eax],al
001047BA  0000              add [eax],al
001047BC  0000              add [eax],al
001047BE  0000              add [eax],al
001047C0  0000              add [eax],al
001047C2  0000              add [eax],al
001047C4  0000              add [eax],al
001047C6  0000              add [eax],al
001047C8  0000              add [eax],al
001047CA  0000              add [eax],al
001047CC  0000              add [eax],al
001047CE  0000              add [eax],al
001047D0  0000              add [eax],al
001047D2  0000              add [eax],al
001047D4  0000              add [eax],al
001047D6  0000              add [eax],al
001047D8  0000              add [eax],al
001047DA  0000              add [eax],al
001047DC  0000              add [eax],al
001047DE  0000              add [eax],al
001047E0  0000              add [eax],al
001047E2  0000              add [eax],al
001047E4  0000              add [eax],al
001047E6  0000              add [eax],al
001047E8  0000              add [eax],al
001047EA  0000              add [eax],al
001047EC  0000              add [eax],al
001047EE  0000              add [eax],al
001047F0  0000              add [eax],al
001047F2  0000              add [eax],al
001047F4  0000              add [eax],al
001047F6  0000              add [eax],al
001047F8  0000              add [eax],al
001047FA  0000              add [eax],al
001047FC  0000              add [eax],al
001047FE  0000              add [eax],al
00104800  0000              add [eax],al
00104802  0000              add [eax],al
00104804  0000              add [eax],al
00104806  0000              add [eax],al
00104808  0000              add [eax],al
0010480A  0000              add [eax],al
0010480C  0000              add [eax],al
0010480E  0000              add [eax],al
00104810  0000              add [eax],al
00104812  0000              add [eax],al
00104814  0000              add [eax],al
00104816  0000              add [eax],al
00104818  0000              add [eax],al
0010481A  0000              add [eax],al
0010481C  0000              add [eax],al
0010481E  0000              add [eax],al
00104820  0000              add [eax],al
00104822  0000              add [eax],al
00104824  0000              add [eax],al
00104826  0000              add [eax],al
00104828  0000              add [eax],al
0010482A  0000              add [eax],al
0010482C  0000              add [eax],al
0010482E  0000              add [eax],al
00104830  0000              add [eax],al
00104832  0000              add [eax],al
00104834  0000              add [eax],al
00104836  0000              add [eax],al
00104838  0000              add [eax],al
0010483A  0000              add [eax],al
0010483C  0000              add [eax],al
0010483E  0000              add [eax],al
00104840  0000              add [eax],al
00104842  0000              add [eax],al
00104844  0000              add [eax],al
00104846  0000              add [eax],al
00104848  0000              add [eax],al
0010484A  0000              add [eax],al
0010484C  0000              add [eax],al
0010484E  0000              add [eax],al
00104850  0000              add [eax],al
00104852  0000              add [eax],al
00104854  0000              add [eax],al
00104856  0000              add [eax],al
00104858  0000              add [eax],al
0010485A  0000              add [eax],al
0010485C  0000              add [eax],al
0010485E  0000              add [eax],al
00104860  0000              add [eax],al
00104862  0000              add [eax],al
00104864  0000              add [eax],al
00104866  0000              add [eax],al
00104868  0000              add [eax],al
0010486A  0000              add [eax],al
0010486C  0000              add [eax],al
0010486E  0000              add [eax],al
00104870  0000              add [eax],al
00104872  0000              add [eax],al
00104874  0000              add [eax],al
00104876  0000              add [eax],al
00104878  0000              add [eax],al
0010487A  0000              add [eax],al
0010487C  0000              add [eax],al
0010487E  0000              add [eax],al
00104880  0000              add [eax],al
00104882  0000              add [eax],al
00104884  0000              add [eax],al
00104886  0000              add [eax],al
00104888  0000              add [eax],al
0010488A  0000              add [eax],al
0010488C  0000              add [eax],al
0010488E  0000              add [eax],al
00104890  0000              add [eax],al
00104892  0000              add [eax],al
00104894  0000              add [eax],al
00104896  0000              add [eax],al
00104898  0000              add [eax],al
0010489A  0000              add [eax],al
0010489C  0000              add [eax],al
0010489E  0000              add [eax],al
001048A0  0000              add [eax],al
001048A2  0000              add [eax],al
001048A4  0000              add [eax],al
001048A6  0000              add [eax],al
001048A8  0000              add [eax],al
001048AA  0000              add [eax],al
001048AC  0000              add [eax],al
001048AE  0000              add [eax],al
001048B0  0000              add [eax],al
001048B2  0000              add [eax],al
001048B4  0000              add [eax],al
001048B6  0000              add [eax],al
001048B8  0000              add [eax],al
001048BA  0000              add [eax],al
001048BC  0000              add [eax],al
001048BE  0000              add [eax],al
001048C0  0000              add [eax],al
001048C2  0000              add [eax],al
001048C4  0000              add [eax],al
001048C6  0000              add [eax],al
001048C8  0000              add [eax],al
001048CA  0000              add [eax],al
001048CC  0000              add [eax],al
001048CE  0000              add [eax],al
001048D0  0000              add [eax],al
001048D2  0000              add [eax],al
001048D4  0000              add [eax],al
001048D6  0000              add [eax],al
001048D8  0000              add [eax],al
001048DA  0000              add [eax],al
001048DC  0000              add [eax],al
001048DE  0000              add [eax],al
001048E0  0000              add [eax],al
001048E2  0000              add [eax],al
001048E4  0000              add [eax],al
001048E6  0000              add [eax],al
001048E8  0000              add [eax],al
001048EA  0000              add [eax],al
001048EC  0000              add [eax],al
001048EE  0000              add [eax],al
001048F0  0000              add [eax],al
001048F2  0000              add [eax],al
001048F4  0000              add [eax],al
001048F6  0000              add [eax],al
001048F8  0000              add [eax],al
001048FA  0000              add [eax],al
001048FC  0000              add [eax],al
001048FE  0000              add [eax],al
00104900  0000              add [eax],al
00104902  0000              add [eax],al
00104904  0000              add [eax],al
00104906  0000              add [eax],al
00104908  0000              add [eax],al
0010490A  0000              add [eax],al
0010490C  0000              add [eax],al
0010490E  0000              add [eax],al
00104910  0000              add [eax],al
00104912  0000              add [eax],al
00104914  0000              add [eax],al
00104916  0000              add [eax],al
00104918  0000              add [eax],al
0010491A  0000              add [eax],al
0010491C  0000              add [eax],al
0010491E  0000              add [eax],al
00104920  0000              add [eax],al
00104922  0000              add [eax],al
00104924  0000              add [eax],al
00104926  0000              add [eax],al
00104928  0000              add [eax],al
0010492A  0000              add [eax],al
0010492C  0000              add [eax],al
0010492E  0000              add [eax],al
00104930  0000              add [eax],al
00104932  0000              add [eax],al
00104934  0000              add [eax],al
00104936  0000              add [eax],al
00104938  0000              add [eax],al
0010493A  0000              add [eax],al
0010493C  0000              add [eax],al
0010493E  0000              add [eax],al
00104940  0000              add [eax],al
00104942  0000              add [eax],al
00104944  0000              add [eax],al
00104946  0000              add [eax],al
00104948  0000              add [eax],al
0010494A  0000              add [eax],al
0010494C  0000              add [eax],al
0010494E  0000              add [eax],al
00104950  0000              add [eax],al
00104952  0000              add [eax],al
00104954  0000              add [eax],al
00104956  0000              add [eax],al
00104958  0000              add [eax],al
0010495A  0000              add [eax],al
0010495C  0000              add [eax],al
0010495E  0000              add [eax],al
00104960  0000              add [eax],al
00104962  0000              add [eax],al
00104964  0000              add [eax],al
00104966  0000              add [eax],al
00104968  0000              add [eax],al
0010496A  0000              add [eax],al
0010496C  0000              add [eax],al
0010496E  0000              add [eax],al
00104970  0000              add [eax],al
00104972  0000              add [eax],al
00104974  0000              add [eax],al
00104976  0000              add [eax],al
00104978  0000              add [eax],al
0010497A  0000              add [eax],al
0010497C  0000              add [eax],al
0010497E  0000              add [eax],al
00104980  0000              add [eax],al
00104982  0000              add [eax],al
00104984  0000              add [eax],al
00104986  0000              add [eax],al
00104988  0000              add [eax],al
0010498A  0000              add [eax],al
0010498C  0000              add [eax],al
0010498E  0000              add [eax],al
00104990  0000              add [eax],al
00104992  0000              add [eax],al
00104994  0000              add [eax],al
00104996  0000              add [eax],al
00104998  0000              add [eax],al
0010499A  0000              add [eax],al
0010499C  0000              add [eax],al
0010499E  0000              add [eax],al
001049A0  0000              add [eax],al
001049A2  0000              add [eax],al
001049A4  0000              add [eax],al
001049A6  0000              add [eax],al
001049A8  0000              add [eax],al
001049AA  0000              add [eax],al
001049AC  0000              add [eax],al
001049AE  0000              add [eax],al
001049B0  0000              add [eax],al
001049B2  0000              add [eax],al
001049B4  0000              add [eax],al
001049B6  0000              add [eax],al
001049B8  0000              add [eax],al
001049BA  0000              add [eax],al
001049BC  0000              add [eax],al
001049BE  0000              add [eax],al
001049C0  0000              add [eax],al
001049C2  0000              add [eax],al
001049C4  0000              add [eax],al
001049C6  0000              add [eax],al
001049C8  0000              add [eax],al
001049CA  0000              add [eax],al
001049CC  0000              add [eax],al
001049CE  0000              add [eax],al
001049D0  0000              add [eax],al
001049D2  0000              add [eax],al
001049D4  0000              add [eax],al
001049D6  0000              add [eax],al
001049D8  0000              add [eax],al
001049DA  0000              add [eax],al
001049DC  0000              add [eax],al
001049DE  0000              add [eax],al
001049E0  0000              add [eax],al
001049E2  0000              add [eax],al
001049E4  0000              add [eax],al
001049E6  0000              add [eax],al
001049E8  0000              add [eax],al
001049EA  0000              add [eax],al
001049EC  0000              add [eax],al
001049EE  0000              add [eax],al
001049F0  0000              add [eax],al
001049F2  0000              add [eax],al
001049F4  0000              add [eax],al
001049F6  0000              add [eax],al
001049F8  0000              add [eax],al
001049FA  0000              add [eax],al
001049FC  0000              add [eax],al
001049FE  0000              add [eax],al
00104A00  0000              add [eax],al
00104A02  0000              add [eax],al
00104A04  0000              add [eax],al
00104A06  0000              add [eax],al
00104A08  0000              add [eax],al
00104A0A  0000              add [eax],al
00104A0C  0000              add [eax],al
00104A0E  0000              add [eax],al
00104A10  0000              add [eax],al
00104A12  0000              add [eax],al
00104A14  0000              add [eax],al
00104A16  0000              add [eax],al
00104A18  0000              add [eax],al
00104A1A  0000              add [eax],al
00104A1C  0000              add [eax],al
00104A1E  0000              add [eax],al
00104A20  0000              add [eax],al
00104A22  0000              add [eax],al
00104A24  0000              add [eax],al
00104A26  0000              add [eax],al
00104A28  0000              add [eax],al
00104A2A  0000              add [eax],al
00104A2C  0000              add [eax],al
00104A2E  0000              add [eax],al
00104A30  0000              add [eax],al
00104A32  0000              add [eax],al
00104A34  0000              add [eax],al
00104A36  0000              add [eax],al
00104A38  0000              add [eax],al
00104A3A  0000              add [eax],al
00104A3C  0000              add [eax],al
00104A3E  0000              add [eax],al
00104A40  0000              add [eax],al
00104A42  0000              add [eax],al
00104A44  0000              add [eax],al
00104A46  0000              add [eax],al
00104A48  0000              add [eax],al
00104A4A  0000              add [eax],al
00104A4C  0000              add [eax],al
00104A4E  0000              add [eax],al
00104A50  0000              add [eax],al
00104A52  0000              add [eax],al
00104A54  0000              add [eax],al
00104A56  0000              add [eax],al
00104A58  0000              add [eax],al
00104A5A  0000              add [eax],al
00104A5C  0000              add [eax],al
00104A5E  0000              add [eax],al
00104A60  0000              add [eax],al
00104A62  0000              add [eax],al
00104A64  0000              add [eax],al
00104A66  0000              add [eax],al
00104A68  0000              add [eax],al
00104A6A  0000              add [eax],al
00104A6C  0000              add [eax],al
00104A6E  0000              add [eax],al
00104A70  0000              add [eax],al
00104A72  0000              add [eax],al
00104A74  0000              add [eax],al
00104A76  0000              add [eax],al
00104A78  0000              add [eax],al
00104A7A  0000              add [eax],al
00104A7C  0000              add [eax],al
00104A7E  0000              add [eax],al
00104A80  0000              add [eax],al
00104A82  0000              add [eax],al
00104A84  0000              add [eax],al
00104A86  0000              add [eax],al
00104A88  0000              add [eax],al
00104A8A  0000              add [eax],al
00104A8C  0000              add [eax],al
00104A8E  0000              add [eax],al
00104A90  0000              add [eax],al
00104A92  0000              add [eax],al
00104A94  0000              add [eax],al
00104A96  0000              add [eax],al
00104A98  0000              add [eax],al
00104A9A  0000              add [eax],al
00104A9C  0000              add [eax],al
00104A9E  0000              add [eax],al
00104AA0  0000              add [eax],al
00104AA2  0000              add [eax],al
00104AA4  0000              add [eax],al
00104AA6  0000              add [eax],al
00104AA8  0000              add [eax],al
00104AAA  0000              add [eax],al
00104AAC  0000              add [eax],al
00104AAE  0000              add [eax],al
00104AB0  0000              add [eax],al
00104AB2  0000              add [eax],al
00104AB4  0000              add [eax],al
00104AB6  0000              add [eax],al
00104AB8  0000              add [eax],al
00104ABA  0000              add [eax],al
00104ABC  0000              add [eax],al
00104ABE  0000              add [eax],al
00104AC0  0000              add [eax],al
00104AC2  0000              add [eax],al
00104AC4  0000              add [eax],al
00104AC6  0000              add [eax],al
00104AC8  0000              add [eax],al
00104ACA  0000              add [eax],al
00104ACC  0000              add [eax],al
00104ACE  0000              add [eax],al
00104AD0  0000              add [eax],al
00104AD2  0000              add [eax],al
00104AD4  0000              add [eax],al
00104AD6  0000              add [eax],al
00104AD8  0000              add [eax],al
00104ADA  0000              add [eax],al
00104ADC  0000              add [eax],al
00104ADE  0000              add [eax],al
00104AE0  0000              add [eax],al
00104AE2  0000              add [eax],al
00104AE4  0000              add [eax],al
00104AE6  0000              add [eax],al
00104AE8  0000              add [eax],al
00104AEA  0000              add [eax],al
00104AEC  0000              add [eax],al
00104AEE  0000              add [eax],al
00104AF0  0000              add [eax],al
00104AF2  0000              add [eax],al
00104AF4  0000              add [eax],al
00104AF6  0000              add [eax],al
00104AF8  0000              add [eax],al
00104AFA  0000              add [eax],al
00104AFC  0000              add [eax],al
00104AFE  0000              add [eax],al
00104B00  0000              add [eax],al
00104B02  0000              add [eax],al
00104B04  0000              add [eax],al
00104B06  0000              add [eax],al
00104B08  0000              add [eax],al
00104B0A  0000              add [eax],al
00104B0C  0000              add [eax],al
00104B0E  0000              add [eax],al
00104B10  0000              add [eax],al
00104B12  0000              add [eax],al
00104B14  0000              add [eax],al
00104B16  0000              add [eax],al
00104B18  0000              add [eax],al
00104B1A  0000              add [eax],al
00104B1C  0000              add [eax],al
00104B1E  0000              add [eax],al
00104B20  0000              add [eax],al
00104B22  0000              add [eax],al
00104B24  0000              add [eax],al
00104B26  0000              add [eax],al
00104B28  0000              add [eax],al
00104B2A  0000              add [eax],al
00104B2C  0000              add [eax],al
00104B2E  0000              add [eax],al
00104B30  0000              add [eax],al
00104B32  0000              add [eax],al
00104B34  0000              add [eax],al
00104B36  0000              add [eax],al
00104B38  0000              add [eax],al
00104B3A  0000              add [eax],al
00104B3C  0000              add [eax],al
00104B3E  0000              add [eax],al
00104B40  0000              add [eax],al
00104B42  0000              add [eax],al
00104B44  0000              add [eax],al
00104B46  0000              add [eax],al
00104B48  0000              add [eax],al
00104B4A  0000              add [eax],al
00104B4C  0000              add [eax],al
00104B4E  0000              add [eax],al
00104B50  0000              add [eax],al
00104B52  0000              add [eax],al
00104B54  0000              add [eax],al
00104B56  0000              add [eax],al
00104B58  0000              add [eax],al
00104B5A  0000              add [eax],al
00104B5C  0000              add [eax],al
00104B5E  0000              add [eax],al
00104B60  0000              add [eax],al
00104B62  0000              add [eax],al
00104B64  0000              add [eax],al
00104B66  0000              add [eax],al
00104B68  0000              add [eax],al
00104B6A  0000              add [eax],al
00104B6C  0000              add [eax],al
00104B6E  0000              add [eax],al
00104B70  0000              add [eax],al
00104B72  0000              add [eax],al
00104B74  0000              add [eax],al
00104B76  0000              add [eax],al
00104B78  0000              add [eax],al
00104B7A  0000              add [eax],al
00104B7C  0000              add [eax],al
00104B7E  0000              add [eax],al
00104B80  0000              add [eax],al
00104B82  0000              add [eax],al
00104B84  0000              add [eax],al
00104B86  0000              add [eax],al
00104B88  0000              add [eax],al
00104B8A  0000              add [eax],al
00104B8C  0000              add [eax],al
00104B8E  0000              add [eax],al
00104B90  0000              add [eax],al
00104B92  0000              add [eax],al
00104B94  0000              add [eax],al
00104B96  0000              add [eax],al
00104B98  0000              add [eax],al
00104B9A  0000              add [eax],al
00104B9C  0000              add [eax],al
00104B9E  0000              add [eax],al
00104BA0  0000              add [eax],al
00104BA2  0000              add [eax],al
00104BA4  0000              add [eax],al
00104BA6  0000              add [eax],al
00104BA8  0000              add [eax],al
00104BAA  0000              add [eax],al
00104BAC  0000              add [eax],al
00104BAE  0000              add [eax],al
00104BB0  0000              add [eax],al
00104BB2  0000              add [eax],al
00104BB4  0000              add [eax],al
00104BB6  0000              add [eax],al
00104BB8  0000              add [eax],al
00104BBA  0000              add [eax],al
00104BBC  0000              add [eax],al
00104BBE  0000              add [eax],al
00104BC0  0000              add [eax],al
00104BC2  0000              add [eax],al
00104BC4  0000              add [eax],al
00104BC6  0000              add [eax],al
00104BC8  0000              add [eax],al
00104BCA  0000              add [eax],al
00104BCC  0000              add [eax],al
00104BCE  0000              add [eax],al
00104BD0  0000              add [eax],al
00104BD2  0000              add [eax],al
00104BD4  0000              add [eax],al
00104BD6  0000              add [eax],al
00104BD8  0000              add [eax],al
00104BDA  0000              add [eax],al
00104BDC  0000              add [eax],al
00104BDE  0000              add [eax],al
00104BE0  0000              add [eax],al
00104BE2  0000              add [eax],al
00104BE4  0000              add [eax],al
00104BE6  0000              add [eax],al
00104BE8  0000              add [eax],al
00104BEA  0000              add [eax],al
00104BEC  0000              add [eax],al
00104BEE  0000              add [eax],al
00104BF0  0000              add [eax],al
00104BF2  0000              add [eax],al
00104BF4  0000              add [eax],al
00104BF6  0000              add [eax],al
00104BF8  0000              add [eax],al
00104BFA  0000              add [eax],al
00104BFC  0000              add [eax],al
00104BFE  0000              add [eax],al
00104C00  0000              add [eax],al
00104C02  0000              add [eax],al
00104C04  0000              add [eax],al
00104C06  0000              add [eax],al
00104C08  0000              add [eax],al
00104C0A  0000              add [eax],al
00104C0C  0000              add [eax],al
00104C0E  0000              add [eax],al
00104C10  0000              add [eax],al
00104C12  0000              add [eax],al
00104C14  0000              add [eax],al
00104C16  0000              add [eax],al
00104C18  0000              add [eax],al
00104C1A  0000              add [eax],al
00104C1C  0000              add [eax],al
00104C1E  0000              add [eax],al
00104C20  0000              add [eax],al
00104C22  0000              add [eax],al
00104C24  0000              add [eax],al
00104C26  0000              add [eax],al
00104C28  0000              add [eax],al
00104C2A  0000              add [eax],al
00104C2C  0000              add [eax],al
00104C2E  0000              add [eax],al
00104C30  0000              add [eax],al
00104C32  0000              add [eax],al
00104C34  0000              add [eax],al
00104C36  0000              add [eax],al
00104C38  0000              add [eax],al
00104C3A  0000              add [eax],al
00104C3C  0000              add [eax],al
00104C3E  0000              add [eax],al
00104C40  0000              add [eax],al
00104C42  0000              add [eax],al
00104C44  0000              add [eax],al
00104C46  0000              add [eax],al
00104C48  0000              add [eax],al
00104C4A  0000              add [eax],al
00104C4C  0000              add [eax],al
00104C4E  0000              add [eax],al
00104C50  0000              add [eax],al
00104C52  0000              add [eax],al
00104C54  0000              add [eax],al
00104C56  0000              add [eax],al
00104C58  0000              add [eax],al
00104C5A  0000              add [eax],al
00104C5C  0000              add [eax],al
00104C5E  0000              add [eax],al
00104C60  0000              add [eax],al
00104C62  0000              add [eax],al
00104C64  0000              add [eax],al
00104C66  0000              add [eax],al
00104C68  0000              add [eax],al
00104C6A  0000              add [eax],al
00104C6C  0000              add [eax],al
00104C6E  0000              add [eax],al
00104C70  0000              add [eax],al
00104C72  0000              add [eax],al
00104C74  0000              add [eax],al
00104C76  0000              add [eax],al
00104C78  0000              add [eax],al
00104C7A  0000              add [eax],al
00104C7C  0000              add [eax],al
00104C7E  0000              add [eax],al
00104C80  0000              add [eax],al
00104C82  0000              add [eax],al
00104C84  0000              add [eax],al
00104C86  0000              add [eax],al
00104C88  0000              add [eax],al
00104C8A  0000              add [eax],al
00104C8C  0000              add [eax],al
00104C8E  0000              add [eax],al
00104C90  0000              add [eax],al
00104C92  0000              add [eax],al
00104C94  0000              add [eax],al
00104C96  0000              add [eax],al
00104C98  0000              add [eax],al
00104C9A  0000              add [eax],al
00104C9C  0000              add [eax],al
00104C9E  0000              add [eax],al
00104CA0  0000              add [eax],al
00104CA2  0000              add [eax],al
00104CA4  0000              add [eax],al
00104CA6  0000              add [eax],al
00104CA8  0000              add [eax],al
00104CAA  0000              add [eax],al
00104CAC  0000              add [eax],al
00104CAE  0000              add [eax],al
00104CB0  0000              add [eax],al
00104CB2  0000              add [eax],al
00104CB4  0000              add [eax],al
00104CB6  0000              add [eax],al
00104CB8  0000              add [eax],al
00104CBA  0000              add [eax],al
00104CBC  0000              add [eax],al
00104CBE  0000              add [eax],al
00104CC0  0000              add [eax],al
00104CC2  0000              add [eax],al
00104CC4  0000              add [eax],al
00104CC6  0000              add [eax],al
00104CC8  0000              add [eax],al
00104CCA  0000              add [eax],al
00104CCC  0000              add [eax],al
00104CCE  0000              add [eax],al
00104CD0  0000              add [eax],al
00104CD2  0000              add [eax],al
00104CD4  0000              add [eax],al
00104CD6  0000              add [eax],al
00104CD8  0000              add [eax],al
00104CDA  0000              add [eax],al
00104CDC  0000              add [eax],al
00104CDE  0000              add [eax],al
00104CE0  0000              add [eax],al
00104CE2  0000              add [eax],al
00104CE4  0000              add [eax],al
00104CE6  0000              add [eax],al
00104CE8  0000              add [eax],al
00104CEA  0000              add [eax],al
00104CEC  0000              add [eax],al
00104CEE  0000              add [eax],al
00104CF0  0000              add [eax],al
00104CF2  0000              add [eax],al
00104CF4  0000              add [eax],al
00104CF6  0000              add [eax],al
00104CF8  0000              add [eax],al
00104CFA  0000              add [eax],al
00104CFC  0000              add [eax],al
00104CFE  0000              add [eax],al
00104D00  0000              add [eax],al
00104D02  0000              add [eax],al
00104D04  0000              add [eax],al
00104D06  0000              add [eax],al
00104D08  0000              add [eax],al
00104D0A  0000              add [eax],al
00104D0C  0000              add [eax],al
00104D0E  0000              add [eax],al
00104D10  0000              add [eax],al
00104D12  0000              add [eax],al
00104D14  0000              add [eax],al
00104D16  0000              add [eax],al
00104D18  0000              add [eax],al
00104D1A  0000              add [eax],al
00104D1C  0000              add [eax],al
00104D1E  0000              add [eax],al
00104D20  0000              add [eax],al
00104D22  0000              add [eax],al
00104D24  0000              add [eax],al
00104D26  0000              add [eax],al
00104D28  0000              add [eax],al
00104D2A  0000              add [eax],al
00104D2C  0000              add [eax],al
00104D2E  0000              add [eax],al
00104D30  0000              add [eax],al
00104D32  0000              add [eax],al
00104D34  0000              add [eax],al
00104D36  0000              add [eax],al
00104D38  0000              add [eax],al
00104D3A  0000              add [eax],al
00104D3C  0000              add [eax],al
00104D3E  0000              add [eax],al
00104D40  0000              add [eax],al
00104D42  0000              add [eax],al
00104D44  0000              add [eax],al
00104D46  0000              add [eax],al
00104D48  0000              add [eax],al
00104D4A  0000              add [eax],al
00104D4C  0000              add [eax],al
00104D4E  0000              add [eax],al
00104D50  0000              add [eax],al
00104D52  0000              add [eax],al
00104D54  0000              add [eax],al
00104D56  0000              add [eax],al
00104D58  0000              add [eax],al
00104D5A  0000              add [eax],al
00104D5C  0000              add [eax],al
00104D5E  0000              add [eax],al
00104D60  0000              add [eax],al
00104D62  0000              add [eax],al
00104D64  0000              add [eax],al
00104D66  0000              add [eax],al
00104D68  0000              add [eax],al
00104D6A  0000              add [eax],al
00104D6C  0000              add [eax],al
00104D6E  0000              add [eax],al
00104D70  0000              add [eax],al
00104D72  0000              add [eax],al
00104D74  0000              add [eax],al
00104D76  0000              add [eax],al
00104D78  0000              add [eax],al
00104D7A  0000              add [eax],al
00104D7C  0000              add [eax],al
00104D7E  0000              add [eax],al
00104D80  0000              add [eax],al
00104D82  0000              add [eax],al
00104D84  0000              add [eax],al
00104D86  0000              add [eax],al
00104D88  0000              add [eax],al
00104D8A  0000              add [eax],al
00104D8C  0000              add [eax],al
00104D8E  0000              add [eax],al
00104D90  0000              add [eax],al
00104D92  0000              add [eax],al
00104D94  0000              add [eax],al
00104D96  0000              add [eax],al
00104D98  0000              add [eax],al
00104D9A  0000              add [eax],al
00104D9C  0000              add [eax],al
00104D9E  0000              add [eax],al
00104DA0  0000              add [eax],al
00104DA2  0000              add [eax],al
00104DA4  0000              add [eax],al
00104DA6  0000              add [eax],al
00104DA8  0000              add [eax],al
00104DAA  0000              add [eax],al
00104DAC  0000              add [eax],al
00104DAE  0000              add [eax],al
00104DB0  0000              add [eax],al
00104DB2  0000              add [eax],al
00104DB4  0000              add [eax],al
00104DB6  0000              add [eax],al
00104DB8  0000              add [eax],al
00104DBA  0000              add [eax],al
00104DBC  0000              add [eax],al
00104DBE  0000              add [eax],al
00104DC0  0000              add [eax],al
00104DC2  0000              add [eax],al
00104DC4  0000              add [eax],al
00104DC6  0000              add [eax],al
00104DC8  0000              add [eax],al
00104DCA  0000              add [eax],al
00104DCC  0000              add [eax],al
00104DCE  0000              add [eax],al
00104DD0  0000              add [eax],al
00104DD2  0000              add [eax],al
00104DD4  0000              add [eax],al
00104DD6  0000              add [eax],al
00104DD8  0000              add [eax],al
00104DDA  0000              add [eax],al
00104DDC  0000              add [eax],al
00104DDE  0000              add [eax],al
00104DE0  0000              add [eax],al
00104DE2  0000              add [eax],al
00104DE4  0000              add [eax],al
00104DE6  0000              add [eax],al
00104DE8  0000              add [eax],al
00104DEA  0000              add [eax],al
00104DEC  0000              add [eax],al
00104DEE  0000              add [eax],al
00104DF0  0000              add [eax],al
00104DF2  0000              add [eax],al
00104DF4  0000              add [eax],al
00104DF6  0000              add [eax],al
00104DF8  0000              add [eax],al
00104DFA  0000              add [eax],al
00104DFC  0000              add [eax],al
00104DFE  0000              add [eax],al
00104E00  0000              add [eax],al
00104E02  0000              add [eax],al
00104E04  0000              add [eax],al
00104E06  0000              add [eax],al
00104E08  0000              add [eax],al
00104E0A  0000              add [eax],al
00104E0C  0000              add [eax],al
00104E0E  0000              add [eax],al
00104E10  0000              add [eax],al
00104E12  0000              add [eax],al
00104E14  0000              add [eax],al
00104E16  0000              add [eax],al
00104E18  0000              add [eax],al
00104E1A  0000              add [eax],al
00104E1C  0000              add [eax],al
00104E1E  0000              add [eax],al
00104E20  0000              add [eax],al
00104E22  0000              add [eax],al
00104E24  0000              add [eax],al
00104E26  0000              add [eax],al
00104E28  0000              add [eax],al
00104E2A  0000              add [eax],al
00104E2C  0000              add [eax],al
00104E2E  0000              add [eax],al
00104E30  0000              add [eax],al
00104E32  0000              add [eax],al
00104E34  0000              add [eax],al
00104E36  0000              add [eax],al
00104E38  0000              add [eax],al
00104E3A  0000              add [eax],al
00104E3C  0000              add [eax],al
00104E3E  0000              add [eax],al
00104E40  0000              add [eax],al
00104E42  0000              add [eax],al
00104E44  0000              add [eax],al
00104E46  0000              add [eax],al
00104E48  0000              add [eax],al
00104E4A  0000              add [eax],al
00104E4C  0000              add [eax],al
00104E4E  0000              add [eax],al
00104E50  0000              add [eax],al
00104E52  0000              add [eax],al
00104E54  0000              add [eax],al
00104E56  0000              add [eax],al
00104E58  0000              add [eax],al
00104E5A  0000              add [eax],al
00104E5C  0000              add [eax],al
00104E5E  0000              add [eax],al
00104E60  0000              add [eax],al
00104E62  0000              add [eax],al
00104E64  0000              add [eax],al
00104E66  0000              add [eax],al
00104E68  0000              add [eax],al
00104E6A  0000              add [eax],al
00104E6C  0000              add [eax],al
00104E6E  0000              add [eax],al
00104E70  0000              add [eax],al
00104E72  0000              add [eax],al
00104E74  0000              add [eax],al
00104E76  0000              add [eax],al
00104E78  0000              add [eax],al
00104E7A  0000              add [eax],al
00104E7C  0000              add [eax],al
00104E7E  0000              add [eax],al
00104E80  0000              add [eax],al
00104E82  0000              add [eax],al
00104E84  0000              add [eax],al
00104E86  0000              add [eax],al
00104E88  0000              add [eax],al
00104E8A  0000              add [eax],al
00104E8C  0000              add [eax],al
00104E8E  0000              add [eax],al
00104E90  0000              add [eax],al
00104E92  0000              add [eax],al
00104E94  0000              add [eax],al
00104E96  0000              add [eax],al
00104E98  0000              add [eax],al
00104E9A  0000              add [eax],al
00104E9C  0000              add [eax],al
00104E9E  0000              add [eax],al
00104EA0  0000              add [eax],al
00104EA2  0000              add [eax],al
00104EA4  0000              add [eax],al
00104EA6  0000              add [eax],al
00104EA8  0000              add [eax],al
00104EAA  0000              add [eax],al
00104EAC  0000              add [eax],al
00104EAE  0000              add [eax],al
00104EB0  0000              add [eax],al
00104EB2  0000              add [eax],al
00104EB4  0000              add [eax],al
00104EB6  0000              add [eax],al
00104EB8  0000              add [eax],al
00104EBA  0000              add [eax],al
00104EBC  0000              add [eax],al
00104EBE  0000              add [eax],al
00104EC0  0000              add [eax],al
00104EC2  0000              add [eax],al
00104EC4  0000              add [eax],al
00104EC6  0000              add [eax],al
00104EC8  0000              add [eax],al
00104ECA  0000              add [eax],al
00104ECC  0000              add [eax],al
00104ECE  0000              add [eax],al
00104ED0  0000              add [eax],al
00104ED2  0000              add [eax],al
00104ED4  0000              add [eax],al
00104ED6  0000              add [eax],al
00104ED8  0000              add [eax],al
00104EDA  0000              add [eax],al
00104EDC  0000              add [eax],al
00104EDE  0000              add [eax],al
00104EE0  0000              add [eax],al
00104EE2  0000              add [eax],al
00104EE4  0000              add [eax],al
00104EE6  0000              add [eax],al
00104EE8  0000              add [eax],al
00104EEA  0000              add [eax],al
00104EEC  0000              add [eax],al
00104EEE  0000              add [eax],al
00104EF0  0000              add [eax],al
00104EF2  0000              add [eax],al
00104EF4  0000              add [eax],al
00104EF6  0000              add [eax],al
00104EF8  0000              add [eax],al
00104EFA  0000              add [eax],al
00104EFC  0000              add [eax],al
00104EFE  0000              add [eax],al
00104F00  0000              add [eax],al
00104F02  0000              add [eax],al
00104F04  0000              add [eax],al
00104F06  0000              add [eax],al
00104F08  0000              add [eax],al
00104F0A  0000              add [eax],al
00104F0C  0000              add [eax],al
00104F0E  0000              add [eax],al
00104F10  0000              add [eax],al
00104F12  0000              add [eax],al
00104F14  0000              add [eax],al
00104F16  0000              add [eax],al
00104F18  0000              add [eax],al
00104F1A  0000              add [eax],al
00104F1C  0000              add [eax],al
00104F1E  0000              add [eax],al
00104F20  0000              add [eax],al
00104F22  0000              add [eax],al
00104F24  0000              add [eax],al
00104F26  0000              add [eax],al
00104F28  0000              add [eax],al
00104F2A  0000              add [eax],al
00104F2C  0000              add [eax],al
00104F2E  0000              add [eax],al
00104F30  0000              add [eax],al
00104F32  0000              add [eax],al
00104F34  0000              add [eax],al
00104F36  0000              add [eax],al
00104F38  0000              add [eax],al
00104F3A  0000              add [eax],al
00104F3C  0000              add [eax],al
00104F3E  0000              add [eax],al
00104F40  0000              add [eax],al
00104F42  0000              add [eax],al
00104F44  0000              add [eax],al
00104F46  0000              add [eax],al
00104F48  0000              add [eax],al
00104F4A  0000              add [eax],al
00104F4C  0000              add [eax],al
00104F4E  0000              add [eax],al
00104F50  0000              add [eax],al
00104F52  0000              add [eax],al
00104F54  0000              add [eax],al
00104F56  0000              add [eax],al
00104F58  0000              add [eax],al
00104F5A  0000              add [eax],al
00104F5C  0000              add [eax],al
00104F5E  0000              add [eax],al
00104F60  0000              add [eax],al
00104F62  0000              add [eax],al
00104F64  0000              add [eax],al
00104F66  0000              add [eax],al
00104F68  0000              add [eax],al
00104F6A  0000              add [eax],al
00104F6C  0000              add [eax],al
00104F6E  0000              add [eax],al
00104F70  0000              add [eax],al
00104F72  0000              add [eax],al
00104F74  0000              add [eax],al
00104F76  0000              add [eax],al
00104F78  0000              add [eax],al
00104F7A  0000              add [eax],al
00104F7C  0000              add [eax],al
00104F7E  0000              add [eax],al
00104F80  0000              add [eax],al
00104F82  0000              add [eax],al
00104F84  0000              add [eax],al
00104F86  0000              add [eax],al
00104F88  0000              add [eax],al
00104F8A  0000              add [eax],al
00104F8C  0000              add [eax],al
00104F8E  0000              add [eax],al
00104F90  0000              add [eax],al
00104F92  0000              add [eax],al
00104F94  0000              add [eax],al
00104F96  0000              add [eax],al
00104F98  0000              add [eax],al
00104F9A  0000              add [eax],al
00104F9C  0000              add [eax],al
00104F9E  0000              add [eax],al
00104FA0  0000              add [eax],al
00104FA2  0000              add [eax],al
00104FA4  0000              add [eax],al
00104FA6  0000              add [eax],al
00104FA8  0000              add [eax],al
00104FAA  0000              add [eax],al
00104FAC  0000              add [eax],al
00104FAE  0000              add [eax],al
00104FB0  0000              add [eax],al
00104FB2  0000              add [eax],al
00104FB4  0000              add [eax],al
00104FB6  0000              add [eax],al
00104FB8  0000              add [eax],al
00104FBA  0000              add [eax],al
00104FBC  0000              add [eax],al
00104FBE  0000              add [eax],al
00104FC0  0000              add [eax],al
00104FC2  0000              add [eax],al
00104FC4  0000              add [eax],al
00104FC6  0000              add [eax],al
00104FC8  0000              add [eax],al
00104FCA  0000              add [eax],al
00104FCC  0000              add [eax],al
00104FCE  0000              add [eax],al
00104FD0  0000              add [eax],al
00104FD2  0000              add [eax],al
00104FD4  0000              add [eax],al
00104FD6  0000              add [eax],al
00104FD8  0000              add [eax],al
00104FDA  0000              add [eax],al
00104FDC  0000              add [eax],al
00104FDE  0000              add [eax],al
00104FE0  0000              add [eax],al
00104FE2  0000              add [eax],al
00104FE4  0000              add [eax],al
00104FE6  0000              add [eax],al
00104FE8  0000              add [eax],al
00104FEA  0000              add [eax],al
00104FEC  0000              add [eax],al
00104FEE  0000              add [eax],al
00104FF0  0000              add [eax],al
00104FF2  0000              add [eax],al
00104FF4  0000              add [eax],al
00104FF6  0000              add [eax],al
00104FF8  0000              add [eax],al
00104FFA  0000              add [eax],al
00104FFC  0000              add [eax],al
00104FFE  0000              add [eax],al
00105000  106000            adc [eax+0x0],ah
00105003  0000              add [eax],al
00105005  0000              add [eax],al
00105007  0010              add [eax],dl
00105009  7000              jo 0x10500b
0010500B  0000              add [eax],al
0010500D  0000              add [eax],al
0010500F  0000              add [eax],al
00105011  0000              add [eax],al
00105013  0000              add [eax],al
00105015  0000              add [eax],al
00105017  0000              add [eax],al
00105019  0000              add [eax],al
0010501B  0000              add [eax],al
0010501D  0000              add [eax],al
0010501F  0000              add [eax],al
00105021  0000              add [eax],al
00105023  0000              add [eax],al
00105025  0000              add [eax],al
00105027  0000              add [eax],al
00105029  0000              add [eax],al
0010502B  0001              add [ecx],al
0010502D  0000              add [eax],al
0010502F  C0                db 0xc0
00105030  3132              xor [edx],esi
00105032  33343536373839    xor esi,[esi+0x39383736]
00105039  302D3D080971      xor [dword 0x7109083d],ch
0010503F  7765              ja 0x1050a6
00105041  7274              jc 0x1050b7
00105043  7975              jns 0x1050ba
00105045  696F705B5D11C1    imul ebp,[edi+0x70],dword 0xc1115d5b
0010504C  61                popa
0010504D  7364              jnc 0x1050b3
0010504F  6667686A6B        push word 0x6b6a
00105054  6C                insb
00105055  3B27              cmp esp,[edi]
00105057  60                pusha
00105058  C3                ret
00105059  5C                pop esp
0010505A  7A78              jpe 0x1050d4
0010505C  637662            arpl [esi+0x62],si
0010505F  6E                outsb
00105060  6D                insd
00105061  2C2E              sub al,0x2e
00105063  2F                das
00105064  C4                db 0xc4
00105065  D6                salc
00105066  C520              lds esp,[eax]
00105068  C0C9CA            ror cl,byte 0xca
0010506B  CB                retf
0010506C  CC                int3
0010506D  CDCE              int 0xce
0010506F  CF                iret
00105070  D0D1              rcl cl,1
00105072  D2C7              rol bh,cl
00105074  C8D7D8D9          enter 0xd8d7,0xd9
00105078  DADB              fcmovu st3
0010507A  DC                db 0xdc
0010507B  DDDE              fstp st6
0010507D  DFE0              fnstsw ax
0010507F  E1E2              loope 0x105063
00105081  E300              jecxz 0x105083
00105083  0000              add [eax],al
00105085  D3D4              rcl esp,cl
00105087  0000              add [eax],al
00105089  0000              add [eax],al
0010508B  0000              add [eax],al
0010508D  0000              add [eax],al
0010508F  0000              add [eax],al
00105091  0000              add [eax],al
00105093  0000              add [eax],al
00105095  0000              add [eax],al
00105097  0000              add [eax],al
00105099  0000              add [eax],al
0010509B  0000              add [eax],al
0010509D  0000              add [eax],al
0010509F  0000              add [eax],al
001050A1  0000              add [eax],al
001050A3  0000              add [eax],al
001050A5  0000              add [eax],al
001050A7  0000              add [eax],al
001050A9  0000              add [eax],al
001050AB  0000              add [eax],al
001050AD  0000              add [eax],al
001050AF  0000              add [eax],al
001050B1  0000              add [eax],al
001050B3  0000              add [eax],al
001050B5  0000              add [eax],al
001050B7  0000              add [eax],al
001050B9  0000              add [eax],al
001050BB  0000              add [eax],al
001050BD  0000              add [eax],al
001050BF  0000              add [eax],al
001050C1  0000              add [eax],al
001050C3  0000              add [eax],al
001050C5  0000              add [eax],al
001050C7  0000              add [eax],al
001050C9  0000              add [eax],al
001050CB  0000              add [eax],al
001050CD  0000              add [eax],al
001050CF  0000              add [eax],al
001050D1  0000              add [eax],al
001050D3  0000              add [eax],al
001050D5  0000              add [eax],al
001050D7  0000              add [eax],al
001050D9  0000              add [eax],al
001050DB  0000              add [eax],al
001050DD  0000              add [eax],al
001050DF  0000              add [eax],al
001050E1  0000              add [eax],al
001050E3  0000              add [eax],al
001050E5  0000              add [eax],al
001050E7  0000              add [eax],al
001050E9  0000              add [eax],al
001050EB  0000              add [eax],al
001050ED  0000              add [eax],al
001050EF  0000              add [eax],al
001050F1  0000              add [eax],al
001050F3  0000              add [eax],al
001050F5  0000              add [eax],al
001050F7  0000              add [eax],al
001050F9  0000              add [eax],al
001050FB  0000              add [eax],al
001050FD  0000              add [eax],al
001050FF  0000              add [eax],al
00105101  0000              add [eax],al
00105103  0000              add [eax],al
00105105  0000              add [eax],al
00105107  0000              add [eax],al
00105109  0000              add [eax],al
0010510B  0000              add [eax],al
0010510D  0000              add [eax],al
0010510F  0000              add [eax],al
00105111  0000              add [eax],al
00105113  0000              add [eax],al
00105115  0000              add [eax],al
00105117  0000              add [eax],al
00105119  0000              add [eax],al
0010511B  0000              add [eax],al
0010511D  0000              add [eax],al
0010511F  0000              add [eax],al
00105121  0000              add [eax],al
00105123  0000              add [eax],al
00105125  0000              add [eax],al
00105127  0000              add [eax],al
00105129  0000              add [eax],al
0010512B  0000              add [eax],al
0010512D  0000              add [eax],al
0010512F  00                db 0x00
